ARM GAS  C:\Users\almsk\AppData\Local\Temp\ccYTaeMb.s 			page 1


   1              		.syntax unified
   2              		.cpu cortex-m3
   3              		.fpu softvfp
   4              		.eabi_attribute 20, 1
   5              		.eabi_attribute 21, 1
   6              		.eabi_attribute 23, 3
   7              		.eabi_attribute 24, 1
   8              		.eabi_attribute 25, 1
   9              		.eabi_attribute 26, 1
  10              		.eabi_attribute 30, 6
  11              		.eabi_attribute 34, 1
  12              		.eabi_attribute 18, 4
  13              		.thumb
  14              		.syntax unified
  15              		.file	"cyfitter_cfg.c"
  16              		.text
  17              	.Ltext0:
  18              		.cfi_sections	.debug_frame
  19              		.section	.text.CYMEMZERO,"ax",%progbits
  20              		.align	2
  21              		.thumb
  22              		.thumb_func
  23              		.type	CYMEMZERO, %function
  24              	CYMEMZERO:
  25              	.LFB0:
  26              		.file 1 "Generated_Source\\PSoC5\\cyfitter_cfg.c"
   1:Generated_Source\PSoC5/cyfitter_cfg.c **** 
   2:Generated_Source\PSoC5/cyfitter_cfg.c **** /*******************************************************************************
   3:Generated_Source\PSoC5/cyfitter_cfg.c **** * File Name: cyfitter_cfg.c
   4:Generated_Source\PSoC5/cyfitter_cfg.c **** * 
   5:Generated_Source\PSoC5/cyfitter_cfg.c **** * PSoC Creator  4.2
   6:Generated_Source\PSoC5/cyfitter_cfg.c **** *
   7:Generated_Source\PSoC5/cyfitter_cfg.c **** * Description:
   8:Generated_Source\PSoC5/cyfitter_cfg.c **** * This file contains device initialization code.
   9:Generated_Source\PSoC5/cyfitter_cfg.c **** * Except for the user defined sections in CyClockStartupError(), this file should not be modified.
  10:Generated_Source\PSoC5/cyfitter_cfg.c **** * This file is automatically generated by PSoC Creator.
  11:Generated_Source\PSoC5/cyfitter_cfg.c **** *
  12:Generated_Source\PSoC5/cyfitter_cfg.c **** ********************************************************************************
  13:Generated_Source\PSoC5/cyfitter_cfg.c **** * Copyright (c) 2007-2018 Cypress Semiconductor.  All rights reserved.
  14:Generated_Source\PSoC5/cyfitter_cfg.c **** * You may use this file only in accordance with the license, terms, conditions, 
  15:Generated_Source\PSoC5/cyfitter_cfg.c **** * disclaimers, and limitations in the end user license agreement accompanying 
  16:Generated_Source\PSoC5/cyfitter_cfg.c **** * the software package with which this file was provided.
  17:Generated_Source\PSoC5/cyfitter_cfg.c **** ********************************************************************************/
  18:Generated_Source\PSoC5/cyfitter_cfg.c **** 
  19:Generated_Source\PSoC5/cyfitter_cfg.c **** #include <string.h>
  20:Generated_Source\PSoC5/cyfitter_cfg.c **** #include "cytypes.h"
  21:Generated_Source\PSoC5/cyfitter_cfg.c **** #include "cydevice_trm.h"
  22:Generated_Source\PSoC5/cyfitter_cfg.c **** #include "cyfitter.h"
  23:Generated_Source\PSoC5/cyfitter_cfg.c **** #include "CyLib.h"
  24:Generated_Source\PSoC5/cyfitter_cfg.c **** #include "cyfitter_cfg.h"
  25:Generated_Source\PSoC5/cyfitter_cfg.c **** #include "cyapicallbacks.h"
  26:Generated_Source\PSoC5/cyfitter_cfg.c **** 
  27:Generated_Source\PSoC5/cyfitter_cfg.c **** #define CY_NEED_CYCLOCKSTARTUPERROR 1
  28:Generated_Source\PSoC5/cyfitter_cfg.c **** 
  29:Generated_Source\PSoC5/cyfitter_cfg.c **** 
  30:Generated_Source\PSoC5/cyfitter_cfg.c **** #if defined(__GNUC__) || defined(__ARMCC_VERSION)
  31:Generated_Source\PSoC5/cyfitter_cfg.c ****     #define CYPACKED 
ARM GAS  C:\Users\almsk\AppData\Local\Temp\ccYTaeMb.s 			page 2


  32:Generated_Source\PSoC5/cyfitter_cfg.c ****     #define CYPACKED_ATTR __attribute__ ((packed))
  33:Generated_Source\PSoC5/cyfitter_cfg.c ****     #define CYALIGNED __attribute__ ((aligned))
  34:Generated_Source\PSoC5/cyfitter_cfg.c ****     #define CY_CFG_UNUSED __attribute__ ((unused))
  35:Generated_Source\PSoC5/cyfitter_cfg.c ****     #ifndef CY_CFG_SECTION
  36:Generated_Source\PSoC5/cyfitter_cfg.c ****         #define CY_CFG_SECTION __attribute__ ((section(".psocinit")))
  37:Generated_Source\PSoC5/cyfitter_cfg.c ****     #endif
  38:Generated_Source\PSoC5/cyfitter_cfg.c ****     
  39:Generated_Source\PSoC5/cyfitter_cfg.c ****     #if defined(__ARMCC_VERSION)
  40:Generated_Source\PSoC5/cyfitter_cfg.c ****         #define CY_CFG_MEMORY_BARRIER() __memory_changed()
  41:Generated_Source\PSoC5/cyfitter_cfg.c ****     #else
  42:Generated_Source\PSoC5/cyfitter_cfg.c ****         #define CY_CFG_MEMORY_BARRIER() __sync_synchronize()
  43:Generated_Source\PSoC5/cyfitter_cfg.c ****     #endif
  44:Generated_Source\PSoC5/cyfitter_cfg.c ****     
  45:Generated_Source\PSoC5/cyfitter_cfg.c **** #elif defined(__ICCARM__)
  46:Generated_Source\PSoC5/cyfitter_cfg.c ****     #include <intrinsics.h>
  47:Generated_Source\PSoC5/cyfitter_cfg.c **** 
  48:Generated_Source\PSoC5/cyfitter_cfg.c ****     #define CYPACKED __packed
  49:Generated_Source\PSoC5/cyfitter_cfg.c ****     #define CYPACKED_ATTR 
  50:Generated_Source\PSoC5/cyfitter_cfg.c ****     #define CYALIGNED _Pragma("data_alignment=4")
  51:Generated_Source\PSoC5/cyfitter_cfg.c ****     #define CY_CFG_UNUSED _Pragma("diag_suppress=Pe177")
  52:Generated_Source\PSoC5/cyfitter_cfg.c ****     #define CY_CFG_SECTION _Pragma("location=\".psocinit\"")
  53:Generated_Source\PSoC5/cyfitter_cfg.c ****     
  54:Generated_Source\PSoC5/cyfitter_cfg.c ****     #define CY_CFG_MEMORY_BARRIER() __DMB()
  55:Generated_Source\PSoC5/cyfitter_cfg.c ****     
  56:Generated_Source\PSoC5/cyfitter_cfg.c **** #else
  57:Generated_Source\PSoC5/cyfitter_cfg.c ****     #error Unsupported toolchain
  58:Generated_Source\PSoC5/cyfitter_cfg.c **** #endif
  59:Generated_Source\PSoC5/cyfitter_cfg.c **** 
  60:Generated_Source\PSoC5/cyfitter_cfg.c **** #ifndef CYCODE
  61:Generated_Source\PSoC5/cyfitter_cfg.c ****     #define CYCODE
  62:Generated_Source\PSoC5/cyfitter_cfg.c **** #endif
  63:Generated_Source\PSoC5/cyfitter_cfg.c **** #ifndef CYDATA
  64:Generated_Source\PSoC5/cyfitter_cfg.c ****     #define CYDATA
  65:Generated_Source\PSoC5/cyfitter_cfg.c **** #endif
  66:Generated_Source\PSoC5/cyfitter_cfg.c **** #ifndef CYFAR
  67:Generated_Source\PSoC5/cyfitter_cfg.c ****     #define CYFAR
  68:Generated_Source\PSoC5/cyfitter_cfg.c **** #endif
  69:Generated_Source\PSoC5/cyfitter_cfg.c **** #ifndef CYXDATA
  70:Generated_Source\PSoC5/cyfitter_cfg.c ****     #define CYXDATA
  71:Generated_Source\PSoC5/cyfitter_cfg.c **** #endif
  72:Generated_Source\PSoC5/cyfitter_cfg.c **** 
  73:Generated_Source\PSoC5/cyfitter_cfg.c **** 
  74:Generated_Source\PSoC5/cyfitter_cfg.c **** CY_CFG_UNUSED
  75:Generated_Source\PSoC5/cyfitter_cfg.c **** static void CYMEMZERO(void *s, size_t n);
  76:Generated_Source\PSoC5/cyfitter_cfg.c **** CY_CFG_UNUSED
  77:Generated_Source\PSoC5/cyfitter_cfg.c **** static void CYMEMZERO(void *s, size_t n)
  78:Generated_Source\PSoC5/cyfitter_cfg.c **** {
  27              		.loc 1 78 0
  28              		.cfi_startproc
  29              		@ args = 0, pretend = 0, frame = 8
  30              		@ frame_needed = 1, uses_anonymous_args = 0
  31 0000 80B5     		push	{r7, lr}
  32              		.cfi_def_cfa_offset 8
  33              		.cfi_offset 7, -8
  34              		.cfi_offset 14, -4
  35 0002 82B0     		sub	sp, sp, #8
  36              		.cfi_def_cfa_offset 16
ARM GAS  C:\Users\almsk\AppData\Local\Temp\ccYTaeMb.s 			page 3


  37 0004 00AF     		add	r7, sp, #0
  38              		.cfi_def_cfa_register 7
  39 0006 7860     		str	r0, [r7, #4]
  40 0008 3960     		str	r1, [r7]
  79:Generated_Source\PSoC5/cyfitter_cfg.c **** 	(void)memset(s, 0, n);
  41              		.loc 1 79 0
  42 000a 3A68     		ldr	r2, [r7]
  43 000c 0021     		movs	r1, #0
  44 000e 7868     		ldr	r0, [r7, #4]
  45 0010 FFF7FEFF 		bl	memset
  80:Generated_Source\PSoC5/cyfitter_cfg.c **** }
  46              		.loc 1 80 0
  47 0014 00BF     		nop
  48 0016 0837     		adds	r7, r7, #8
  49              		.cfi_def_cfa_offset 8
  50 0018 BD46     		mov	sp, r7
  51              		.cfi_def_cfa_register 13
  52              		@ sp needed
  53 001a 80BD     		pop	{r7, pc}
  54              		.cfi_endproc
  55              	.LFE0:
  56              		.size	CYMEMZERO, .-CYMEMZERO
  57              		.section	.text.CYCONFIGCPY,"ax",%progbits
  58              		.align	2
  59              		.thumb
  60              		.thumb_func
  61              		.type	CYCONFIGCPY, %function
  62              	CYCONFIGCPY:
  63              	.LFB1:
  81:Generated_Source\PSoC5/cyfitter_cfg.c **** CY_CFG_UNUSED
  82:Generated_Source\PSoC5/cyfitter_cfg.c **** static void CYCONFIGCPY(void *dest, const void *src, size_t n);
  83:Generated_Source\PSoC5/cyfitter_cfg.c **** CY_CFG_UNUSED
  84:Generated_Source\PSoC5/cyfitter_cfg.c **** static void CYCONFIGCPY(void *dest, const void *src, size_t n)
  85:Generated_Source\PSoC5/cyfitter_cfg.c **** {
  64              		.loc 1 85 0
  65              		.cfi_startproc
  66              		@ args = 0, pretend = 0, frame = 16
  67              		@ frame_needed = 1, uses_anonymous_args = 0
  68 0000 80B5     		push	{r7, lr}
  69              		.cfi_def_cfa_offset 8
  70              		.cfi_offset 7, -8
  71              		.cfi_offset 14, -4
  72 0002 84B0     		sub	sp, sp, #16
  73              		.cfi_def_cfa_offset 24
  74 0004 00AF     		add	r7, sp, #0
  75              		.cfi_def_cfa_register 7
  76 0006 F860     		str	r0, [r7, #12]
  77 0008 B960     		str	r1, [r7, #8]
  78 000a 7A60     		str	r2, [r7, #4]
  86:Generated_Source\PSoC5/cyfitter_cfg.c **** 	(void)memcpy(dest, src, n);
  79              		.loc 1 86 0
  80 000c 7A68     		ldr	r2, [r7, #4]
  81 000e B968     		ldr	r1, [r7, #8]
  82 0010 F868     		ldr	r0, [r7, #12]
  83 0012 FFF7FEFF 		bl	memcpy
  87:Generated_Source\PSoC5/cyfitter_cfg.c **** }
  84              		.loc 1 87 0
ARM GAS  C:\Users\almsk\AppData\Local\Temp\ccYTaeMb.s 			page 4


  85 0016 00BF     		nop
  86 0018 1037     		adds	r7, r7, #16
  87              		.cfi_def_cfa_offset 8
  88 001a BD46     		mov	sp, r7
  89              		.cfi_def_cfa_register 13
  90              		@ sp needed
  91 001c 80BD     		pop	{r7, pc}
  92              		.cfi_endproc
  93              	.LFE1:
  94              		.size	CYCONFIGCPY, .-CYCONFIGCPY
  95 001e 00BF     		.section	.text.CYCONFIGCPYCODE,"ax",%progbits
  96              		.align	2
  97              		.thumb
  98              		.thumb_func
  99              		.type	CYCONFIGCPYCODE, %function
 100              	CYCONFIGCPYCODE:
 101              	.LFB2:
  88:Generated_Source\PSoC5/cyfitter_cfg.c **** CY_CFG_UNUSED
  89:Generated_Source\PSoC5/cyfitter_cfg.c **** static void CYCONFIGCPYCODE(void *dest, const void *src, size_t n);
  90:Generated_Source\PSoC5/cyfitter_cfg.c **** CY_CFG_UNUSED
  91:Generated_Source\PSoC5/cyfitter_cfg.c **** static void CYCONFIGCPYCODE(void *dest, const void *src, size_t n)
  92:Generated_Source\PSoC5/cyfitter_cfg.c **** {
 102              		.loc 1 92 0
 103              		.cfi_startproc
 104              		@ args = 0, pretend = 0, frame = 16
 105              		@ frame_needed = 1, uses_anonymous_args = 0
 106 0000 80B5     		push	{r7, lr}
 107              		.cfi_def_cfa_offset 8
 108              		.cfi_offset 7, -8
 109              		.cfi_offset 14, -4
 110 0002 84B0     		sub	sp, sp, #16
 111              		.cfi_def_cfa_offset 24
 112 0004 00AF     		add	r7, sp, #0
 113              		.cfi_def_cfa_register 7
 114 0006 F860     		str	r0, [r7, #12]
 115 0008 B960     		str	r1, [r7, #8]
 116 000a 7A60     		str	r2, [r7, #4]
  93:Generated_Source\PSoC5/cyfitter_cfg.c **** 	(void)memcpy(dest, src, n);
 117              		.loc 1 93 0
 118 000c 7A68     		ldr	r2, [r7, #4]
 119 000e B968     		ldr	r1, [r7, #8]
 120 0010 F868     		ldr	r0, [r7, #12]
 121 0012 FFF7FEFF 		bl	memcpy
  94:Generated_Source\PSoC5/cyfitter_cfg.c **** }
 122              		.loc 1 94 0
 123 0016 00BF     		nop
 124 0018 1037     		adds	r7, r7, #16
 125              		.cfi_def_cfa_offset 8
 126 001a BD46     		mov	sp, r7
 127              		.cfi_def_cfa_register 13
 128              		@ sp needed
 129 001c 80BD     		pop	{r7, pc}
 130              		.cfi_endproc
 131              	.LFE2:
 132              		.size	CYCONFIGCPYCODE, .-CYCONFIGCPYCODE
 133 001e 00BF     		.section	.text.CyClockStartupError,"ax",%progbits
 134              		.align	2
ARM GAS  C:\Users\almsk\AppData\Local\Temp\ccYTaeMb.s 			page 5


 135              		.thumb
 136              		.thumb_func
 137              		.type	CyClockStartupError, %function
 138              	CyClockStartupError:
 139              	.LFB3:
  95:Generated_Source\PSoC5/cyfitter_cfg.c **** 
  96:Generated_Source\PSoC5/cyfitter_cfg.c **** 
  97:Generated_Source\PSoC5/cyfitter_cfg.c **** 
  98:Generated_Source\PSoC5/cyfitter_cfg.c **** 
  99:Generated_Source\PSoC5/cyfitter_cfg.c **** /* Clock startup error codes                                                   */
 100:Generated_Source\PSoC5/cyfitter_cfg.c **** #define CYCLOCKSTART_NO_ERROR    0u
 101:Generated_Source\PSoC5/cyfitter_cfg.c **** #define CYCLOCKSTART_XTAL_ERROR  1u
 102:Generated_Source\PSoC5/cyfitter_cfg.c **** #define CYCLOCKSTART_32KHZ_ERROR 2u
 103:Generated_Source\PSoC5/cyfitter_cfg.c **** #define CYCLOCKSTART_PLL_ERROR   3u
 104:Generated_Source\PSoC5/cyfitter_cfg.c **** #define CYCLOCKSTART_FLL_ERROR   4u
 105:Generated_Source\PSoC5/cyfitter_cfg.c **** #define CYCLOCKSTART_WCO_ERROR   5u
 106:Generated_Source\PSoC5/cyfitter_cfg.c **** 
 107:Generated_Source\PSoC5/cyfitter_cfg.c **** 
 108:Generated_Source\PSoC5/cyfitter_cfg.c **** #ifdef CY_NEED_CYCLOCKSTARTUPERROR
 109:Generated_Source\PSoC5/cyfitter_cfg.c **** /*******************************************************************************
 110:Generated_Source\PSoC5/cyfitter_cfg.c **** * Function Name: CyClockStartupError
 111:Generated_Source\PSoC5/cyfitter_cfg.c **** ********************************************************************************
 112:Generated_Source\PSoC5/cyfitter_cfg.c **** * Summary:
 113:Generated_Source\PSoC5/cyfitter_cfg.c **** *  If an error is encountered during clock configuration (crystal startup error,
 114:Generated_Source\PSoC5/cyfitter_cfg.c **** *  PLL lock error, etc.), the system will end up here.  Unless reimplemented by
 115:Generated_Source\PSoC5/cyfitter_cfg.c **** *  the customer, this function will stop in an infinite loop.
 116:Generated_Source\PSoC5/cyfitter_cfg.c **** *
 117:Generated_Source\PSoC5/cyfitter_cfg.c **** * Parameters:
 118:Generated_Source\PSoC5/cyfitter_cfg.c **** *   void
 119:Generated_Source\PSoC5/cyfitter_cfg.c **** *
 120:Generated_Source\PSoC5/cyfitter_cfg.c **** * Return:
 121:Generated_Source\PSoC5/cyfitter_cfg.c **** *   void
 122:Generated_Source\PSoC5/cyfitter_cfg.c **** *
 123:Generated_Source\PSoC5/cyfitter_cfg.c **** *******************************************************************************/
 124:Generated_Source\PSoC5/cyfitter_cfg.c **** CY_CFG_UNUSED
 125:Generated_Source\PSoC5/cyfitter_cfg.c **** static void CyClockStartupError(uint8 errorCode);
 126:Generated_Source\PSoC5/cyfitter_cfg.c **** CY_CFG_UNUSED
 127:Generated_Source\PSoC5/cyfitter_cfg.c **** static void CyClockStartupError(uint8 errorCode)
 128:Generated_Source\PSoC5/cyfitter_cfg.c **** {
 140              		.loc 1 128 0
 141              		.cfi_startproc
 142              		@ args = 0, pretend = 0, frame = 8
 143              		@ frame_needed = 1, uses_anonymous_args = 0
 144              		@ link register save eliminated.
 145 0000 80B4     		push	{r7}
 146              		.cfi_def_cfa_offset 4
 147              		.cfi_offset 7, -4
 148 0002 83B0     		sub	sp, sp, #12
 149              		.cfi_def_cfa_offset 16
 150 0004 00AF     		add	r7, sp, #0
 151              		.cfi_def_cfa_register 7
 152 0006 0346     		mov	r3, r0
 153 0008 FB71     		strb	r3, [r7, #7]
 154              	.L5:
 129:Generated_Source\PSoC5/cyfitter_cfg.c ****     /* To remove the compiler warning if errorCode not used.                */
 130:Generated_Source\PSoC5/cyfitter_cfg.c ****     errorCode = errorCode;
 131:Generated_Source\PSoC5/cyfitter_cfg.c **** 
ARM GAS  C:\Users\almsk\AppData\Local\Temp\ccYTaeMb.s 			page 6


 132:Generated_Source\PSoC5/cyfitter_cfg.c ****     /* If we have a clock startup error (bad MHz crystal, PLL lock, etc.),  */
 133:Generated_Source\PSoC5/cyfitter_cfg.c ****     /* we will end up here to allow the customer to implement something to  */
 134:Generated_Source\PSoC5/cyfitter_cfg.c ****     /* deal with the clock condition.                                       */
 135:Generated_Source\PSoC5/cyfitter_cfg.c **** 
 136:Generated_Source\PSoC5/cyfitter_cfg.c **** #ifdef CY_CFG_CLOCK_STARTUP_ERROR_CALLBACK
 137:Generated_Source\PSoC5/cyfitter_cfg.c ****     CY_CFG_Clock_Startup_ErrorCallback();
 138:Generated_Source\PSoC5/cyfitter_cfg.c **** #else
 139:Generated_Source\PSoC5/cyfitter_cfg.c ****     /*  If not using CY_CFG_CLOCK_STARTUP_ERROR_CALLBACK, place your clock startup code here. */
 140:Generated_Source\PSoC5/cyfitter_cfg.c ****     /* `#START CyClockStartupError` */
 141:Generated_Source\PSoC5/cyfitter_cfg.c **** 
 142:Generated_Source\PSoC5/cyfitter_cfg.c **** 
 143:Generated_Source\PSoC5/cyfitter_cfg.c **** 
 144:Generated_Source\PSoC5/cyfitter_cfg.c ****     /* `#END` */
 145:Generated_Source\PSoC5/cyfitter_cfg.c **** 
 146:Generated_Source\PSoC5/cyfitter_cfg.c ****     while(1) {}
 155              		.loc 1 146 0 discriminator 1
 156 000a FEE7     		b	.L5
 157              		.cfi_endproc
 158              	.LFE3:
 159              		.size	CyClockStartupError, .-CyClockStartupError
 160              		.section	.text.cfg_write_bytes32,"ax",%progbits
 161              		.align	2
 162              		.thumb
 163              		.thumb_func
 164              		.type	cfg_write_bytes32, %function
 165              	cfg_write_bytes32:
 166              	.LFB4:
 147:Generated_Source\PSoC5/cyfitter_cfg.c **** #endif /* CY_CFG_CLOCK_STARTUP_ERROR_CALLBACK */
 148:Generated_Source\PSoC5/cyfitter_cfg.c **** }
 149:Generated_Source\PSoC5/cyfitter_cfg.c **** #endif
 150:Generated_Source\PSoC5/cyfitter_cfg.c **** 
 151:Generated_Source\PSoC5/cyfitter_cfg.c **** #define CY_CFG_BASE_ADDR_COUNT 28u
 152:Generated_Source\PSoC5/cyfitter_cfg.c **** CYPACKED typedef struct
 153:Generated_Source\PSoC5/cyfitter_cfg.c **** {
 154:Generated_Source\PSoC5/cyfitter_cfg.c **** 	uint8 offset;
 155:Generated_Source\PSoC5/cyfitter_cfg.c **** 	uint8 value;
 156:Generated_Source\PSoC5/cyfitter_cfg.c **** } CYPACKED_ATTR cy_cfg_addrvalue_t;
 157:Generated_Source\PSoC5/cyfitter_cfg.c **** 
 158:Generated_Source\PSoC5/cyfitter_cfg.c **** #define cy_cfg_addr_table ((const uint32 CYFAR *)0x48000000u)
 159:Generated_Source\PSoC5/cyfitter_cfg.c **** #define cy_cfg_data_table ((const cy_cfg_addrvalue_t CYFAR *)0x48000070u)
 160:Generated_Source\PSoC5/cyfitter_cfg.c **** 
 161:Generated_Source\PSoC5/cyfitter_cfg.c **** /* IOPINS0_0 Address: CYREG_PRT0_DM0 Size (bytes): 8 */
 162:Generated_Source\PSoC5/cyfitter_cfg.c **** #define BS_IOPINS0_0_VAL ((const uint8 CYFAR *)0x480005A8u)
 163:Generated_Source\PSoC5/cyfitter_cfg.c **** 
 164:Generated_Source\PSoC5/cyfitter_cfg.c **** /* IOPINS0_7 Address: CYREG_PRT12_DR Size (bytes): 10 */
 165:Generated_Source\PSoC5/cyfitter_cfg.c **** #define BS_IOPINS0_7_VAL ((const uint8 CYFAR *)0x480005B0u)
 166:Generated_Source\PSoC5/cyfitter_cfg.c **** 
 167:Generated_Source\PSoC5/cyfitter_cfg.c **** /* IOPINS0_1 Address: CYREG_PRT1_DM0 Size (bytes): 8 */
 168:Generated_Source\PSoC5/cyfitter_cfg.c **** #define BS_IOPINS0_1_VAL ((const uint8 CYFAR *)0x480005BCu)
 169:Generated_Source\PSoC5/cyfitter_cfg.c **** 
 170:Generated_Source\PSoC5/cyfitter_cfg.c **** /* IOPINS0_2 Address: CYREG_PRT2_DR Size (bytes): 10 */
 171:Generated_Source\PSoC5/cyfitter_cfg.c **** #define BS_IOPINS0_2_VAL ((const uint8 CYFAR *)0x480005C4u)
 172:Generated_Source\PSoC5/cyfitter_cfg.c **** 
 173:Generated_Source\PSoC5/cyfitter_cfg.c **** /* IOPINS0_3 Address: CYREG_PRT3_DM0 Size (bytes): 8 */
 174:Generated_Source\PSoC5/cyfitter_cfg.c **** #define BS_IOPINS0_3_VAL ((const uint8 CYFAR *)0x480005D0u)
 175:Generated_Source\PSoC5/cyfitter_cfg.c **** 
 176:Generated_Source\PSoC5/cyfitter_cfg.c **** /* CYDEV_CLKDIST_ACFG0_CFG0 Address: CYREG_CLKDIST_ACFG0_CFG0 Size (bytes): 4 */
ARM GAS  C:\Users\almsk\AppData\Local\Temp\ccYTaeMb.s 			page 7


 177:Generated_Source\PSoC5/cyfitter_cfg.c **** #define BS_CYDEV_CLKDIST_ACFG0_CFG0_VAL ((const uint8 CYFAR *)0x480005D8u)
 178:Generated_Source\PSoC5/cyfitter_cfg.c **** 
 179:Generated_Source\PSoC5/cyfitter_cfg.c **** /* PHUB_CFGMEM1 Address: CYREG_PHUB_CFGMEM1_CFG0 Size (bytes): 4 */
 180:Generated_Source\PSoC5/cyfitter_cfg.c **** #define BS_PHUB_CFGMEM1_VAL ((const uint8 CYFAR *)0x480005DCu)
 181:Generated_Source\PSoC5/cyfitter_cfg.c **** 
 182:Generated_Source\PSoC5/cyfitter_cfg.c **** 
 183:Generated_Source\PSoC5/cyfitter_cfg.c **** /*******************************************************************************
 184:Generated_Source\PSoC5/cyfitter_cfg.c **** * Function Name: cfg_write_bytes32
 185:Generated_Source\PSoC5/cyfitter_cfg.c **** ********************************************************************************
 186:Generated_Source\PSoC5/cyfitter_cfg.c **** * Summary:
 187:Generated_Source\PSoC5/cyfitter_cfg.c **** *  This function is used for setting up the chip configuration areas that
 188:Generated_Source\PSoC5/cyfitter_cfg.c **** *  contain relatively sparse data.
 189:Generated_Source\PSoC5/cyfitter_cfg.c **** *
 190:Generated_Source\PSoC5/cyfitter_cfg.c **** * Parameters:
 191:Generated_Source\PSoC5/cyfitter_cfg.c **** *   void
 192:Generated_Source\PSoC5/cyfitter_cfg.c **** *
 193:Generated_Source\PSoC5/cyfitter_cfg.c **** * Return:
 194:Generated_Source\PSoC5/cyfitter_cfg.c **** *   void
 195:Generated_Source\PSoC5/cyfitter_cfg.c **** *
 196:Generated_Source\PSoC5/cyfitter_cfg.c **** *******************************************************************************/
 197:Generated_Source\PSoC5/cyfitter_cfg.c **** static void cfg_write_bytes32(const uint32 addr_table[], const cy_cfg_addrvalue_t data_table[]);
 198:Generated_Source\PSoC5/cyfitter_cfg.c **** static void cfg_write_bytes32(const uint32 addr_table[], const cy_cfg_addrvalue_t data_table[])
 199:Generated_Source\PSoC5/cyfitter_cfg.c **** {
 167              		.loc 1 199 0
 168              		.cfi_startproc
 169              		@ args = 0, pretend = 0, frame = 24
 170              		@ frame_needed = 1, uses_anonymous_args = 0
 171              		@ link register save eliminated.
 172 0000 80B4     		push	{r7}
 173              		.cfi_def_cfa_offset 4
 174              		.cfi_offset 7, -4
 175 0002 87B0     		sub	sp, sp, #28
 176              		.cfi_def_cfa_offset 32
 177 0004 00AF     		add	r7, sp, #0
 178              		.cfi_def_cfa_register 7
 179 0006 7860     		str	r0, [r7, #4]
 180 0008 3960     		str	r1, [r7]
 200:Generated_Source\PSoC5/cyfitter_cfg.c **** 	/* For 32-bit little-endian architectures */
 201:Generated_Source\PSoC5/cyfitter_cfg.c **** 	uint32 i, j = 0u;
 181              		.loc 1 201 0
 182 000a 0023     		movs	r3, #0
 183 000c 3B61     		str	r3, [r7, #16]
 202:Generated_Source\PSoC5/cyfitter_cfg.c **** 	for (i = 0u; i < CY_CFG_BASE_ADDR_COUNT; i++)
 184              		.loc 1 202 0
 185 000e 0023     		movs	r3, #0
 186 0010 7B61     		str	r3, [r7, #20]
 187 0012 27E0     		b	.L7
 188              	.L10:
 189              	.LBB2:
 203:Generated_Source\PSoC5/cyfitter_cfg.c **** 	{
 204:Generated_Source\PSoC5/cyfitter_cfg.c **** 		uint32 baseAddr = addr_table[i];
 190              		.loc 1 204 0
 191 0014 7B69     		ldr	r3, [r7, #20]
 192 0016 9B00     		lsls	r3, r3, #2
 193 0018 7A68     		ldr	r2, [r7, #4]
 194 001a 1344     		add	r3, r3, r2
 195 001c 1B68     		ldr	r3, [r3]
ARM GAS  C:\Users\almsk\AppData\Local\Temp\ccYTaeMb.s 			page 8


 196 001e BB60     		str	r3, [r7, #8]
 205:Generated_Source\PSoC5/cyfitter_cfg.c **** 		uint8 count = (uint8)baseAddr;
 197              		.loc 1 205 0
 198 0020 BB68     		ldr	r3, [r7, #8]
 199 0022 FB73     		strb	r3, [r7, #15]
 206:Generated_Source\PSoC5/cyfitter_cfg.c **** 		baseAddr &= 0xFFFFFF00u;
 200              		.loc 1 206 0
 201 0024 BB68     		ldr	r3, [r7, #8]
 202 0026 23F0FF03 		bic	r3, r3, #255
 203 002a BB60     		str	r3, [r7, #8]
 207:Generated_Source\PSoC5/cyfitter_cfg.c **** 		while (count != 0u)
 204              		.loc 1 207 0
 205 002c 14E0     		b	.L8
 206              	.L9:
 208:Generated_Source\PSoC5/cyfitter_cfg.c **** 		{
 209:Generated_Source\PSoC5/cyfitter_cfg.c **** 			CY_SET_REG8((void *)(baseAddr + data_table[j].offset), data_table[j].value);
 207              		.loc 1 209 0
 208 002e 3B69     		ldr	r3, [r7, #16]
 209 0030 5B00     		lsls	r3, r3, #1
 210 0032 3A68     		ldr	r2, [r7]
 211 0034 1344     		add	r3, r3, r2
 212 0036 1B78     		ldrb	r3, [r3]	@ zero_extendqisi2
 213 0038 1A46     		mov	r2, r3
 214 003a BB68     		ldr	r3, [r7, #8]
 215 003c 1344     		add	r3, r3, r2
 216 003e 1946     		mov	r1, r3
 217 0040 3B69     		ldr	r3, [r7, #16]
 218 0042 5B00     		lsls	r3, r3, #1
 219 0044 3A68     		ldr	r2, [r7]
 220 0046 1344     		add	r3, r3, r2
 221 0048 5B78     		ldrb	r3, [r3, #1]	@ zero_extendqisi2
 222 004a 0B70     		strb	r3, [r1]
 210:Generated_Source\PSoC5/cyfitter_cfg.c **** 			j++;
 223              		.loc 1 210 0
 224 004c 3B69     		ldr	r3, [r7, #16]
 225 004e 0133     		adds	r3, r3, #1
 226 0050 3B61     		str	r3, [r7, #16]
 211:Generated_Source\PSoC5/cyfitter_cfg.c **** 			count--;
 227              		.loc 1 211 0
 228 0052 FB7B     		ldrb	r3, [r7, #15]	@ zero_extendqisi2
 229 0054 013B     		subs	r3, r3, #1
 230 0056 FB73     		strb	r3, [r7, #15]
 231              	.L8:
 207:Generated_Source\PSoC5/cyfitter_cfg.c **** 		{
 232              		.loc 1 207 0
 233 0058 FB7B     		ldrb	r3, [r7, #15]	@ zero_extendqisi2
 234 005a 002B     		cmp	r3, #0
 235 005c E7D1     		bne	.L9
 236              	.LBE2:
 202:Generated_Source\PSoC5/cyfitter_cfg.c **** 	{
 237              		.loc 1 202 0 discriminator 2
 238 005e 7B69     		ldr	r3, [r7, #20]
 239 0060 0133     		adds	r3, r3, #1
 240 0062 7B61     		str	r3, [r7, #20]
 241              	.L7:
 202:Generated_Source\PSoC5/cyfitter_cfg.c **** 	{
 242              		.loc 1 202 0 is_stmt 0 discriminator 1
ARM GAS  C:\Users\almsk\AppData\Local\Temp\ccYTaeMb.s 			page 9


 243 0064 7B69     		ldr	r3, [r7, #20]
 244 0066 1B2B     		cmp	r3, #27
 245 0068 D4D9     		bls	.L10
 212:Generated_Source\PSoC5/cyfitter_cfg.c **** 		}
 213:Generated_Source\PSoC5/cyfitter_cfg.c **** 	}
 214:Generated_Source\PSoC5/cyfitter_cfg.c **** }
 246              		.loc 1 214 0 is_stmt 1
 247 006a 00BF     		nop
 248 006c 1C37     		adds	r7, r7, #28
 249              		.cfi_def_cfa_offset 4
 250 006e BD46     		mov	sp, r7
 251              		.cfi_def_cfa_register 13
 252              		@ sp needed
 253 0070 80BC     		pop	{r7}
 254              		.cfi_restore 7
 255              		.cfi_def_cfa_offset 0
 256 0072 7047     		bx	lr
 257              		.cfi_endproc
 258              	.LFE4:
 259              		.size	cfg_write_bytes32, .-cfg_write_bytes32
 260              		.section	.text.ClockSetup,"ax",%progbits
 261              		.align	2
 262              		.thumb
 263              		.thumb_func
 264              		.type	ClockSetup, %function
 265              	ClockSetup:
 266              	.LFB5:
 215:Generated_Source\PSoC5/cyfitter_cfg.c **** 
 216:Generated_Source\PSoC5/cyfitter_cfg.c **** /*******************************************************************************
 217:Generated_Source\PSoC5/cyfitter_cfg.c **** * Function Name: ClockSetup
 218:Generated_Source\PSoC5/cyfitter_cfg.c **** ********************************************************************************
 219:Generated_Source\PSoC5/cyfitter_cfg.c **** *
 220:Generated_Source\PSoC5/cyfitter_cfg.c **** * Summary:
 221:Generated_Source\PSoC5/cyfitter_cfg.c **** *  Performs the initialization of all of the clocks in the device based on the
 222:Generated_Source\PSoC5/cyfitter_cfg.c **** *  settings in the Clock tab of the DWR.  This includes enabling the requested
 223:Generated_Source\PSoC5/cyfitter_cfg.c **** *  clocks and setting the necessary dividers to produce the desired frequency. 
 224:Generated_Source\PSoC5/cyfitter_cfg.c **** *
 225:Generated_Source\PSoC5/cyfitter_cfg.c **** * Parameters:
 226:Generated_Source\PSoC5/cyfitter_cfg.c **** *  void
 227:Generated_Source\PSoC5/cyfitter_cfg.c **** *
 228:Generated_Source\PSoC5/cyfitter_cfg.c **** * Return:
 229:Generated_Source\PSoC5/cyfitter_cfg.c **** *  void
 230:Generated_Source\PSoC5/cyfitter_cfg.c **** *
 231:Generated_Source\PSoC5/cyfitter_cfg.c **** *******************************************************************************/
 232:Generated_Source\PSoC5/cyfitter_cfg.c **** static void ClockSetup(void);
 233:Generated_Source\PSoC5/cyfitter_cfg.c **** static void ClockSetup(void)
 234:Generated_Source\PSoC5/cyfitter_cfg.c **** {
 267              		.loc 1 234 0
 268              		.cfi_startproc
 269              		@ args = 0, pretend = 0, frame = 8
 270              		@ frame_needed = 1, uses_anonymous_args = 0
 271 0000 80B5     		push	{r7, lr}
 272              		.cfi_def_cfa_offset 8
 273              		.cfi_offset 7, -8
 274              		.cfi_offset 14, -4
 275 0002 82B0     		sub	sp, sp, #8
 276              		.cfi_def_cfa_offset 16
ARM GAS  C:\Users\almsk\AppData\Local\Temp\ccYTaeMb.s 			page 10


 277 0004 00AF     		add	r7, sp, #0
 278              		.cfi_def_cfa_register 7
 235:Generated_Source\PSoC5/cyfitter_cfg.c **** 	uint32 timeout;
 236:Generated_Source\PSoC5/cyfitter_cfg.c **** 	uint8 pllLock;
 237:Generated_Source\PSoC5/cyfitter_cfg.c **** 
 238:Generated_Source\PSoC5/cyfitter_cfg.c **** 
 239:Generated_Source\PSoC5/cyfitter_cfg.c **** 	/* Configure Digital Clocks based on settings from Clock DWR */
 240:Generated_Source\PSoC5/cyfitter_cfg.c **** 	CY_SET_XTND_REG16((void CYFAR *)(CYREG_CLKDIST_DCFG0_CFG0), 0x0001u);
 279              		.loc 1 240 0
 280 0006 454B     		ldr	r3, .L16
 281 0008 0122     		movs	r2, #1
 282 000a 1A80     		strh	r2, [r3]	@ movhi
 241:Generated_Source\PSoC5/cyfitter_cfg.c **** 	CY_SET_XTND_REG8((void CYFAR *)(CYREG_CLKDIST_DCFG0_CFG0 + 0x2u), 0x18u);
 283              		.loc 1 241 0
 284 000c 444B     		ldr	r3, .L16+4
 285 000e 1822     		movs	r2, #24
 286 0010 1A70     		strb	r2, [r3]
 242:Generated_Source\PSoC5/cyfitter_cfg.c **** 	CY_SET_XTND_REG16((void CYFAR *)(CYREG_CLKDIST_DCFG1_CFG0), 0x0000u);
 287              		.loc 1 242 0
 288 0012 444B     		ldr	r3, .L16+8
 289 0014 0022     		movs	r2, #0
 290 0016 1A80     		strh	r2, [r3]	@ movhi
 243:Generated_Source\PSoC5/cyfitter_cfg.c **** 	CY_SET_XTND_REG8((void CYFAR *)(CYREG_CLKDIST_DCFG1_CFG0 + 0x2u), 0x58u);
 291              		.loc 1 243 0
 292 0018 434B     		ldr	r3, .L16+12
 293 001a 5822     		movs	r2, #88
 294 001c 1A70     		strb	r2, [r3]
 244:Generated_Source\PSoC5/cyfitter_cfg.c **** 	CY_SET_XTND_REG16((void CYFAR *)(CYREG_CLKDIST_DCFG2_CFG0), 0x0024u);
 295              		.loc 1 244 0
 296 001e 434B     		ldr	r3, .L16+16
 297 0020 2422     		movs	r2, #36
 298 0022 1A80     		strh	r2, [r3]	@ movhi
 245:Generated_Source\PSoC5/cyfitter_cfg.c **** 	CY_SET_XTND_REG8((void CYFAR *)(CYREG_CLKDIST_DCFG2_CFG0 + 0x2u), 0x18u);
 299              		.loc 1 245 0
 300 0024 424B     		ldr	r3, .L16+20
 301 0026 1822     		movs	r2, #24
 302 0028 1A70     		strb	r2, [r3]
 246:Generated_Source\PSoC5/cyfitter_cfg.c **** 	CY_SET_XTND_REG16((void CYFAR *)(CYREG_CLKDIST_DCFG3_CFG0), 0x002Au);
 303              		.loc 1 246 0
 304 002a 424B     		ldr	r3, .L16+24
 305 002c 2A22     		movs	r2, #42
 306 002e 1A80     		strh	r2, [r3]	@ movhi
 247:Generated_Source\PSoC5/cyfitter_cfg.c **** 	CY_SET_XTND_REG8((void CYFAR *)(CYREG_CLKDIST_DCFG3_CFG0 + 0x2u), 0x18u);
 307              		.loc 1 247 0
 308 0030 414B     		ldr	r3, .L16+28
 309 0032 1822     		movs	r2, #24
 310 0034 1A70     		strb	r2, [r3]
 248:Generated_Source\PSoC5/cyfitter_cfg.c **** 
 249:Generated_Source\PSoC5/cyfitter_cfg.c **** 	/* Configure Analog Clocks based on settings from Clock DWR */
 250:Generated_Source\PSoC5/cyfitter_cfg.c **** 	CYCONFIGCPY((void CYFAR *)(CYREG_CLKDIST_ACFG0_CFG0), (const void CYFAR *)(BS_CYDEV_CLKDIST_ACFG0_
 311              		.loc 1 250 0
 312 0036 0422     		movs	r2, #4
 313 0038 4049     		ldr	r1, .L16+32
 314 003a 4148     		ldr	r0, .L16+36
 315 003c FFF7FEFF 		bl	CYCONFIGCPY
 251:Generated_Source\PSoC5/cyfitter_cfg.c **** 
 252:Generated_Source\PSoC5/cyfitter_cfg.c **** 	/* Configure ILO based on settings from Clock DWR */
ARM GAS  C:\Users\almsk\AppData\Local\Temp\ccYTaeMb.s 			page 11


 253:Generated_Source\PSoC5/cyfitter_cfg.c **** 	CY_SET_XTND_REG8((void CYFAR *)(CYREG_SLOWCLK_ILO_CR0), 0x06u);
 316              		.loc 1 253 0
 317 0040 404B     		ldr	r3, .L16+40
 318 0042 0622     		movs	r2, #6
 319 0044 1A70     		strb	r2, [r3]
 254:Generated_Source\PSoC5/cyfitter_cfg.c **** 
 255:Generated_Source\PSoC5/cyfitter_cfg.c **** 	/* Configure IMO based on settings from Clock DWR */
 256:Generated_Source\PSoC5/cyfitter_cfg.c **** 	CY_SET_XTND_REG8((void CYFAR *)(CYREG_FASTCLK_IMO_CR), 0x52u);
 320              		.loc 1 256 0
 321 0046 404B     		ldr	r3, .L16+44
 322 0048 5222     		movs	r2, #82
 323 004a 1A70     		strb	r2, [r3]
 257:Generated_Source\PSoC5/cyfitter_cfg.c **** 	CY_SET_XTND_REG8((void CYFAR *)(CYREG_IMO_TR1), (CY_GET_XTND_REG8((void CYFAR *)CYREG_FLSHID_CUST_
 324              		.loc 1 257 0
 325 004c 3F4B     		ldr	r3, .L16+48
 326 004e 404A     		ldr	r2, .L16+52
 327 0050 1278     		ldrb	r2, [r2]
 328 0052 D2B2     		uxtb	r2, r2
 329 0054 1A70     		strb	r2, [r3]
 258:Generated_Source\PSoC5/cyfitter_cfg.c **** 
 259:Generated_Source\PSoC5/cyfitter_cfg.c **** 	/* Configure PLL based on settings from Clock DWR */
 260:Generated_Source\PSoC5/cyfitter_cfg.c **** 	CY_SET_XTND_REG16((void CYFAR *)(CYREG_FASTCLK_PLL_P), 0x0B11u);
 330              		.loc 1 260 0
 331 0056 3F4B     		ldr	r3, .L16+56
 332 0058 40F61132 		movw	r2, #2833
 333 005c 1A80     		strh	r2, [r3]	@ movhi
 261:Generated_Source\PSoC5/cyfitter_cfg.c **** 	CY_SET_XTND_REG16((void CYFAR *)(CYREG_FASTCLK_PLL_CFG0), 0x1251u);
 334              		.loc 1 261 0
 335 005e 3E4B     		ldr	r3, .L16+60
 336 0060 41F25122 		movw	r2, #4689
 337 0064 1A80     		strh	r2, [r3]	@ movhi
 262:Generated_Source\PSoC5/cyfitter_cfg.c **** 	/* Wait up to 250us for the PLL to lock */
 263:Generated_Source\PSoC5/cyfitter_cfg.c **** 	pllLock = 0u;
 338              		.loc 1 263 0
 339 0066 0023     		movs	r3, #0
 340 0068 FB70     		strb	r3, [r7, #3]
 264:Generated_Source\PSoC5/cyfitter_cfg.c **** 	for (timeout = 250u / 10u; (timeout > 0u) && (pllLock != 0x03u); timeout--)
 341              		.loc 1 264 0
 342 006a 1923     		movs	r3, #25
 343 006c 7B60     		str	r3, [r7, #4]
 344 006e 14E0     		b	.L12
 345              	.L14:
 265:Generated_Source\PSoC5/cyfitter_cfg.c **** 	{ 
 266:Generated_Source\PSoC5/cyfitter_cfg.c **** 		pllLock = 0x03u & ((uint8)((uint8)pllLock << 1) | ((CY_GET_XTND_REG8((void CYFAR *)CYREG_FASTCLK_
 346              		.loc 1 266 0 discriminator 4
 347 0070 FB78     		ldrb	r3, [r7, #3]
 348 0072 5B00     		lsls	r3, r3, #1
 349 0074 DAB2     		uxtb	r2, r3
 350 0076 394B     		ldr	r3, .L16+64
 351 0078 1B78     		ldrb	r3, [r3]
 352 007a DBB2     		uxtb	r3, r3
 353 007c 03F00103 		and	r3, r3, #1
 354 0080 DBB2     		uxtb	r3, r3
 355 0082 1343     		orrs	r3, r3, r2
 356 0084 DBB2     		uxtb	r3, r3
 357 0086 03F00303 		and	r3, r3, #3
 358 008a FB70     		strb	r3, [r7, #3]
ARM GAS  C:\Users\almsk\AppData\Local\Temp\ccYTaeMb.s 			page 12


 267:Generated_Source\PSoC5/cyfitter_cfg.c **** 		CyDelayCycles(10u * 48u); /* Delay 10us based on 48MHz clock */
 359              		.loc 1 267 0 discriminator 4
 360 008c 4FF4F070 		mov	r0, #480
 361 0090 FFF7FEFF 		bl	CyDelayCycles
 264:Generated_Source\PSoC5/cyfitter_cfg.c **** 	for (timeout = 250u / 10u; (timeout > 0u) && (pllLock != 0x03u); timeout--)
 362              		.loc 1 264 0 discriminator 4
 363 0094 7B68     		ldr	r3, [r7, #4]
 364 0096 013B     		subs	r3, r3, #1
 365 0098 7B60     		str	r3, [r7, #4]
 366              	.L12:
 264:Generated_Source\PSoC5/cyfitter_cfg.c **** 	for (timeout = 250u / 10u; (timeout > 0u) && (pllLock != 0x03u); timeout--)
 367              		.loc 1 264 0 is_stmt 0 discriminator 1
 368 009a 7B68     		ldr	r3, [r7, #4]
 369 009c 002B     		cmp	r3, #0
 370 009e 02D0     		beq	.L13
 264:Generated_Source\PSoC5/cyfitter_cfg.c **** 	for (timeout = 250u / 10u; (timeout > 0u) && (pllLock != 0x03u); timeout--)
 371              		.loc 1 264 0 discriminator 3
 372 00a0 FB78     		ldrb	r3, [r7, #3]	@ zero_extendqisi2
 373 00a2 032B     		cmp	r3, #3
 374 00a4 E4D1     		bne	.L14
 375              	.L13:
 268:Generated_Source\PSoC5/cyfitter_cfg.c **** 	}
 269:Generated_Source\PSoC5/cyfitter_cfg.c **** 	/* If we ran out of time the PLL didn't lock so go to the error function */
 270:Generated_Source\PSoC5/cyfitter_cfg.c **** 	if (timeout == 0u)
 376              		.loc 1 270 0 is_stmt 1
 377 00a6 7B68     		ldr	r3, [r7, #4]
 378 00a8 002B     		cmp	r3, #0
 379 00aa 02D1     		bne	.L15
 271:Generated_Source\PSoC5/cyfitter_cfg.c **** 	{
 272:Generated_Source\PSoC5/cyfitter_cfg.c **** 		CyClockStartupError(CYCLOCKSTART_PLL_ERROR);
 380              		.loc 1 272 0
 381 00ac 0320     		movs	r0, #3
 382 00ae FFF7FEFF 		bl	CyClockStartupError
 383              	.L15:
 273:Generated_Source\PSoC5/cyfitter_cfg.c **** 	}
 274:Generated_Source\PSoC5/cyfitter_cfg.c **** 
 275:Generated_Source\PSoC5/cyfitter_cfg.c **** 	/* Configure Bus/Master Clock based on settings from Clock DWR */
 276:Generated_Source\PSoC5/cyfitter_cfg.c **** 	CY_SET_XTND_REG16((void CYFAR *)(CYREG_CLKDIST_MSTR0), 0x0100u);
 384              		.loc 1 276 0
 385 00b2 2B4B     		ldr	r3, .L16+68
 386 00b4 4FF48072 		mov	r2, #256
 387 00b8 1A80     		strh	r2, [r3]	@ movhi
 277:Generated_Source\PSoC5/cyfitter_cfg.c **** 	CY_SET_XTND_REG8((void CYFAR *)(CYREG_CLKDIST_MSTR0), 0x07u);
 388              		.loc 1 277 0
 389 00ba 294B     		ldr	r3, .L16+68
 390 00bc 0722     		movs	r2, #7
 391 00be 1A70     		strb	r2, [r3]
 278:Generated_Source\PSoC5/cyfitter_cfg.c **** 	CY_SET_XTND_REG8((void CYFAR *)(CYREG_CLKDIST_BCFG0), 0x00u);
 392              		.loc 1 278 0
 393 00c0 284B     		ldr	r3, .L16+72
 394 00c2 0022     		movs	r2, #0
 395 00c4 1A70     		strb	r2, [r3]
 279:Generated_Source\PSoC5/cyfitter_cfg.c **** 	CY_SET_XTND_REG8((void CYFAR *)(CYREG_CLKDIST_BCFG2), 0x48u);
 396              		.loc 1 279 0
 397 00c6 284B     		ldr	r3, .L16+76
 398 00c8 4822     		movs	r2, #72
 399 00ca 1A70     		strb	r2, [r3]
ARM GAS  C:\Users\almsk\AppData\Local\Temp\ccYTaeMb.s 			page 13


 280:Generated_Source\PSoC5/cyfitter_cfg.c **** 	CY_SET_XTND_REG8((void CYFAR *)(CYREG_CLKDIST_MSTR0), 0x00u);
 400              		.loc 1 280 0
 401 00cc 244B     		ldr	r3, .L16+68
 402 00ce 0022     		movs	r2, #0
 403 00d0 1A70     		strb	r2, [r3]
 281:Generated_Source\PSoC5/cyfitter_cfg.c **** 
 282:Generated_Source\PSoC5/cyfitter_cfg.c **** 	/* Configure USB Clock based on settings from Clock DWR */
 283:Generated_Source\PSoC5/cyfitter_cfg.c **** 	CY_SET_XTND_REG8((void CYFAR *)(CYREG_CLKDIST_UCFG), 0x00u);
 404              		.loc 1 283 0
 405 00d2 264B     		ldr	r3, .L16+80
 406 00d4 0022     		movs	r2, #0
 407 00d6 1A70     		strb	r2, [r3]
 284:Generated_Source\PSoC5/cyfitter_cfg.c **** 	CY_SET_XTND_REG8((void CYFAR *)(CYREG_CLKDIST_LD), 0x02u);
 408              		.loc 1 284 0
 409 00d8 254B     		ldr	r3, .L16+84
 410 00da 0222     		movs	r2, #2
 411 00dc 1A70     		strb	r2, [r3]
 285:Generated_Source\PSoC5/cyfitter_cfg.c **** 	CY_SET_XTND_REG8((void CYFAR *)(CYREG_CLKDIST_DLY1), 0x04u);
 412              		.loc 1 285 0
 413 00de 254B     		ldr	r3, .L16+88
 414 00e0 0422     		movs	r2, #4
 415 00e2 1A70     		strb	r2, [r3]
 286:Generated_Source\PSoC5/cyfitter_cfg.c **** 
 287:Generated_Source\PSoC5/cyfitter_cfg.c **** 	CY_SET_XTND_REG8((void CYFAR *)(CYREG_PM_ACT_CFG2), ((CY_GET_XTND_REG8((void CYFAR *)CYREG_PM_ACT_
 416              		.loc 1 287 0
 417 00e4 244A     		ldr	r2, .L16+92
 418 00e6 244B     		ldr	r3, .L16+92
 419 00e8 1B78     		ldrb	r3, [r3]
 420 00ea DBB2     		uxtb	r3, r3
 421 00ec 43F00F03 		orr	r3, r3, #15
 422 00f0 DBB2     		uxtb	r3, r3
 423 00f2 1370     		strb	r3, [r2]
 288:Generated_Source\PSoC5/cyfitter_cfg.c **** 	CY_SET_XTND_REG8((void CYFAR *)(CYREG_PM_ACT_CFG1), ((CY_GET_XTND_REG8((void CYFAR *)CYREG_PM_ACT_
 424              		.loc 1 288 0
 425 00f4 214A     		ldr	r2, .L16+96
 426 00f6 214B     		ldr	r3, .L16+96
 427 00f8 1B78     		ldrb	r3, [r3]
 428 00fa DBB2     		uxtb	r3, r3
 429 00fc 43F00103 		orr	r3, r3, #1
 430 0100 DBB2     		uxtb	r3, r3
 431 0102 1370     		strb	r3, [r2]
 289:Generated_Source\PSoC5/cyfitter_cfg.c **** 	CY_SET_XTND_REG8((void CYFAR *)(CYREG_PM_ACT_CFG0), ((CY_GET_XTND_REG8((void CYFAR *)CYREG_PM_ACT_
 432              		.loc 1 289 0
 433 0104 1E4A     		ldr	r2, .L16+100
 434 0106 1E4B     		ldr	r3, .L16+100
 435 0108 1B78     		ldrb	r3, [r3]
 436 010a DBB2     		uxtb	r3, r3
 437 010c 63F07F03 		orn	r3, r3, #127
 438 0110 DBB2     		uxtb	r3, r3
 439 0112 1370     		strb	r3, [r2]
 290:Generated_Source\PSoC5/cyfitter_cfg.c **** }
 440              		.loc 1 290 0
 441 0114 00BF     		nop
 442 0116 0837     		adds	r7, r7, #8
 443              		.cfi_def_cfa_offset 8
 444 0118 BD46     		mov	sp, r7
 445              		.cfi_def_cfa_register 13
ARM GAS  C:\Users\almsk\AppData\Local\Temp\ccYTaeMb.s 			page 14


 446              		@ sp needed
 447 011a 80BD     		pop	{r7, pc}
 448              	.L17:
 449              		.align	2
 450              	.L16:
 451 011c 80400040 		.word	1073758336
 452 0120 82400040 		.word	1073758338
 453 0124 84400040 		.word	1073758340
 454 0128 86400040 		.word	1073758342
 455 012c 88400040 		.word	1073758344
 456 0130 8A400040 		.word	1073758346
 457 0134 8C400040 		.word	1073758348
 458 0138 8E400040 		.word	1073758350
 459 013c D8050048 		.word	1207961048
 460 0140 00410040 		.word	1073758464
 461 0144 00430040 		.word	1073758976
 462 0148 00420040 		.word	1073758720
 463 014c A1460040 		.word	1073759905
 464 0150 0F010049 		.word	1224737039
 465 0154 22420040 		.word	1073758754
 466 0158 20420040 		.word	1073758752
 467 015c 25420040 		.word	1073758757
 468 0160 04400040 		.word	1073758212
 469 0164 06400040 		.word	1073758214
 470 0168 08400040 		.word	1073758216
 471 016c 09400040 		.word	1073758217
 472 0170 01400040 		.word	1073758209
 473 0174 0B400040 		.word	1073758219
 474 0178 A2430040 		.word	1073759138
 475 017c A1430040 		.word	1073759137
 476 0180 A0430040 		.word	1073759136
 477              		.cfi_endproc
 478              	.LFE5:
 479              		.size	ClockSetup, .-ClockSetup
 480              		.section	.text.AnalogSetDefault,"ax",%progbits
 481              		.align	2
 482              		.thumb
 483              		.thumb_func
 484              		.type	AnalogSetDefault, %function
 485              	AnalogSetDefault:
 486              	.LFB6:
 291:Generated_Source\PSoC5/cyfitter_cfg.c **** 
 292:Generated_Source\PSoC5/cyfitter_cfg.c **** 
 293:Generated_Source\PSoC5/cyfitter_cfg.c **** /* Analog API Functions */
 294:Generated_Source\PSoC5/cyfitter_cfg.c **** 
 295:Generated_Source\PSoC5/cyfitter_cfg.c **** 
 296:Generated_Source\PSoC5/cyfitter_cfg.c **** /*******************************************************************************
 297:Generated_Source\PSoC5/cyfitter_cfg.c **** * Function Name: AnalogSetDefault
 298:Generated_Source\PSoC5/cyfitter_cfg.c **** ********************************************************************************
 299:Generated_Source\PSoC5/cyfitter_cfg.c **** *
 300:Generated_Source\PSoC5/cyfitter_cfg.c **** * Summary:
 301:Generated_Source\PSoC5/cyfitter_cfg.c **** *  Sets up the analog portions of the chip to default values based on chip
 302:Generated_Source\PSoC5/cyfitter_cfg.c **** *  configuration options from the project.
 303:Generated_Source\PSoC5/cyfitter_cfg.c **** *
 304:Generated_Source\PSoC5/cyfitter_cfg.c **** * Parameters:
 305:Generated_Source\PSoC5/cyfitter_cfg.c **** *  void
 306:Generated_Source\PSoC5/cyfitter_cfg.c **** *
ARM GAS  C:\Users\almsk\AppData\Local\Temp\ccYTaeMb.s 			page 15


 307:Generated_Source\PSoC5/cyfitter_cfg.c **** * Return:
 308:Generated_Source\PSoC5/cyfitter_cfg.c **** *  void
 309:Generated_Source\PSoC5/cyfitter_cfg.c **** *
 310:Generated_Source\PSoC5/cyfitter_cfg.c **** *******************************************************************************/
 311:Generated_Source\PSoC5/cyfitter_cfg.c **** static void AnalogSetDefault(void);
 312:Generated_Source\PSoC5/cyfitter_cfg.c **** static void AnalogSetDefault(void)
 313:Generated_Source\PSoC5/cyfitter_cfg.c **** {
 487              		.loc 1 313 0
 488              		.cfi_startproc
 489              		@ args = 0, pretend = 0, frame = 8
 490              		@ frame_needed = 1, uses_anonymous_args = 0
 491 0000 80B5     		push	{r7, lr}
 492              		.cfi_def_cfa_offset 8
 493              		.cfi_offset 7, -8
 494              		.cfi_offset 14, -4
 495 0002 82B0     		sub	sp, sp, #8
 496              		.cfi_def_cfa_offset 16
 497 0004 00AF     		add	r7, sp, #0
 498              		.cfi_def_cfa_register 7
 314:Generated_Source\PSoC5/cyfitter_cfg.c **** 	uint8 bg_xover_inl_trim = CY_GET_XTND_REG8((void CYFAR *)(CYREG_FLSHID_MFG_CFG_BG_XOVER_INL_TRIM +
 499              		.loc 1 314 0
 500 0006 224B     		ldr	r3, .L19
 501 0008 1B78     		ldrb	r3, [r3]
 502 000a FB71     		strb	r3, [r7, #7]
 315:Generated_Source\PSoC5/cyfitter_cfg.c **** 	uint8 cr4 = CY_GET_XTND_REG8((void CYFAR *)(CYREG_RESET_CR4));
 503              		.loc 1 315 0
 504 000c 214B     		ldr	r3, .L19+4
 505 000e 1B78     		ldrb	r3, [r3]
 506 0010 BB71     		strb	r3, [r7, #6]
 316:Generated_Source\PSoC5/cyfitter_cfg.c **** 	uint8 cr5 = CY_GET_XTND_REG8((void CYFAR *)(CYREG_RESET_CR5));
 507              		.loc 1 316 0
 508 0012 214B     		ldr	r3, .L19+8
 509 0014 1B78     		ldrb	r3, [r3]
 510 0016 7B71     		strb	r3, [r7, #5]
 317:Generated_Source\PSoC5/cyfitter_cfg.c **** 	CY_SET_XTND_REG8((void CYFAR *)(CYREG_BG_DFT0), (bg_xover_inl_trim & 0x07u));
 511              		.loc 1 317 0
 512 0018 204A     		ldr	r2, .L19+12
 513 001a FB79     		ldrb	r3, [r7, #7]
 514 001c 03F00703 		and	r3, r3, #7
 515 0020 DBB2     		uxtb	r3, r3
 516 0022 1370     		strb	r3, [r2]
 318:Generated_Source\PSoC5/cyfitter_cfg.c **** 	CY_SET_XTND_REG8((void CYFAR *)(CYREG_BG_DFT1), ((bg_xover_inl_trim >> 4) & 0x0Fu));
 517              		.loc 1 318 0
 518 0024 1E4A     		ldr	r2, .L19+16
 519 0026 FB79     		ldrb	r3, [r7, #7]	@ zero_extendqisi2
 520 0028 1B09     		lsrs	r3, r3, #4
 521 002a DBB2     		uxtb	r3, r3
 522 002c 1370     		strb	r3, [r2]
 319:Generated_Source\PSoC5/cyfitter_cfg.c **** 	/* Disable PRES while setting up SAR voltage reference */
 320:Generated_Source\PSoC5/cyfitter_cfg.c **** 	CY_SET_XTND_REG8((void CYFAR *)(CYREG_RESET_CR4), (cr4 | 0x03u));
 523              		.loc 1 320 0
 524 002e 194A     		ldr	r2, .L19+4
 525 0030 BB79     		ldrb	r3, [r7, #6]
 526 0032 43F00303 		orr	r3, r3, #3
 527 0036 DBB2     		uxtb	r3, r3
 528 0038 1370     		strb	r3, [r2]
 321:Generated_Source\PSoC5/cyfitter_cfg.c **** 	CY_SET_XTND_REG8((void CYFAR *)(CYREG_RESET_CR5), (cr5 | 0x03u));
ARM GAS  C:\Users\almsk\AppData\Local\Temp\ccYTaeMb.s 			page 16


 529              		.loc 1 321 0
 530 003a 174A     		ldr	r2, .L19+8
 531 003c 7B79     		ldrb	r3, [r7, #5]
 532 003e 43F00303 		orr	r3, r3, #3
 533 0042 DBB2     		uxtb	r3, r3
 534 0044 1370     		strb	r3, [r2]
 322:Generated_Source\PSoC5/cyfitter_cfg.c **** 	CY_SET_XTND_REG8((void CYFAR *)CYREG_PRT1_AG, 0x80u);
 535              		.loc 1 322 0
 536 0046 174B     		ldr	r3, .L19+20
 537 0048 8022     		movs	r2, #128
 538 004a 1A70     		strb	r2, [r3]
 323:Generated_Source\PSoC5/cyfitter_cfg.c **** 	CY_SET_XTND_REG8((void CYFAR *)CYREG_SAR0_CSR1, 0x80u);
 539              		.loc 1 323 0
 540 004c 164B     		ldr	r3, .L19+24
 541 004e 8022     		movs	r2, #128
 542 0050 1A70     		strb	r2, [r3]
 324:Generated_Source\PSoC5/cyfitter_cfg.c **** 	CY_SET_XTND_REG8((void CYFAR *)CYREG_SAR1_CSR1, 0x80u);
 543              		.loc 1 324 0
 544 0052 164B     		ldr	r3, .L19+28
 545 0054 8022     		movs	r2, #128
 546 0056 1A70     		strb	r2, [r3]
 325:Generated_Source\PSoC5/cyfitter_cfg.c **** 	CY_SET_XTND_REG8((void CYFAR *)CYREG_SAR0_SW0, 0x08u);
 547              		.loc 1 325 0
 548 0058 154B     		ldr	r3, .L19+32
 549 005a 0822     		movs	r2, #8
 550 005c 1A70     		strb	r2, [r3]
 326:Generated_Source\PSoC5/cyfitter_cfg.c **** 	CY_SET_XTND_REG8((void CYFAR *)CYREG_SAR0_SW3, 0x20u);
 551              		.loc 1 326 0
 552 005e 154B     		ldr	r3, .L19+36
 553 0060 2022     		movs	r2, #32
 554 0062 1A70     		strb	r2, [r3]
 327:Generated_Source\PSoC5/cyfitter_cfg.c **** 	CY_SET_XTND_REG8((void CYFAR *)CYREG_SAR1_SW3, 0x20u);
 555              		.loc 1 327 0
 556 0064 144B     		ldr	r3, .L19+40
 557 0066 2022     		movs	r2, #32
 558 0068 1A70     		strb	r2, [r3]
 328:Generated_Source\PSoC5/cyfitter_cfg.c **** 	CY_SET_XTND_REG8((void CYFAR *)CYREG_BUS_SW0, 0x08u);
 559              		.loc 1 328 0
 560 006a 144B     		ldr	r3, .L19+44
 561 006c 0822     		movs	r2, #8
 562 006e 1A70     		strb	r2, [r3]
 329:Generated_Source\PSoC5/cyfitter_cfg.c **** 	CyDelayUs(10u); /* Allow vref to settle before re-enabling PRES */
 563              		.loc 1 329 0
 564 0070 0A20     		movs	r0, #10
 565 0072 FFF7FEFF 		bl	CyDelayUs
 330:Generated_Source\PSoC5/cyfitter_cfg.c **** 	CY_SET_XTND_REG8((void CYFAR *)(CYREG_RESET_CR5), (cr5));
 566              		.loc 1 330 0
 567 0076 084A     		ldr	r2, .L19+8
 568 0078 7B79     		ldrb	r3, [r7, #5]
 569 007a 1370     		strb	r3, [r2]
 331:Generated_Source\PSoC5/cyfitter_cfg.c **** 	CY_SET_XTND_REG8((void CYFAR *)(CYREG_RESET_CR4), (cr4));
 570              		.loc 1 331 0
 571 007c 054A     		ldr	r2, .L19+4
 572 007e BB79     		ldrb	r3, [r7, #6]
 573 0080 1370     		strb	r3, [r2]
 332:Generated_Source\PSoC5/cyfitter_cfg.c **** 	CY_SET_XTND_REG8((void CYFAR *)CYREG_PUMP_CR0, 0x44u);
 574              		.loc 1 332 0
ARM GAS  C:\Users\almsk\AppData\Local\Temp\ccYTaeMb.s 			page 17


 575 0082 0F4B     		ldr	r3, .L19+48
 576 0084 4422     		movs	r2, #68
 577 0086 1A70     		strb	r2, [r3]
 333:Generated_Source\PSoC5/cyfitter_cfg.c **** }
 578              		.loc 1 333 0
 579 0088 00BF     		nop
 580 008a 0837     		adds	r7, r7, #8
 581              		.cfi_def_cfa_offset 8
 582 008c BD46     		mov	sp, r7
 583              		.cfi_def_cfa_register 13
 584              		@ sp needed
 585 008e 80BD     		pop	{r7, pc}
 586              	.L20:
 587              		.align	2
 588              	.L19:
 589 0090 CF010049 		.word	1224737231
 590 0094 F8460040 		.word	1073759992
 591 0098 F9460040 		.word	1073759993
 592 009c 6E580040 		.word	1073764462
 593 00a0 6F580040 		.word	1073764463
 594 00a4 1D510040 		.word	1073762589
 595 00a8 01590040 		.word	1073764609
 596 00ac 09590040 		.word	1073764617
 597 00b0 205B0040 		.word	1073765152
 598 00b4 235B0040 		.word	1073765155
 599 00b8 2B5B0040 		.word	1073765163
 600 00bc 585B0040 		.word	1073765208
 601 00c0 76580040 		.word	1073764470
 602              		.cfi_endproc
 603              	.LFE6:
 604              		.size	AnalogSetDefault, .-AnalogSetDefault
 605              		.section	.text.SetAnalogRoutingPumps,"ax",%progbits
 606              		.align	2
 607              		.global	SetAnalogRoutingPumps
 608              		.thumb
 609              		.thumb_func
 610              		.type	SetAnalogRoutingPumps, %function
 611              	SetAnalogRoutingPumps:
 612              	.LFB7:
 334:Generated_Source\PSoC5/cyfitter_cfg.c **** 
 335:Generated_Source\PSoC5/cyfitter_cfg.c **** 
 336:Generated_Source\PSoC5/cyfitter_cfg.c **** /*******************************************************************************
 337:Generated_Source\PSoC5/cyfitter_cfg.c **** * Function Name: SetAnalogRoutingPumps
 338:Generated_Source\PSoC5/cyfitter_cfg.c **** ********************************************************************************
 339:Generated_Source\PSoC5/cyfitter_cfg.c **** *
 340:Generated_Source\PSoC5/cyfitter_cfg.c **** * Summary:
 341:Generated_Source\PSoC5/cyfitter_cfg.c **** * Enables or disables the analog pumps feeding analog routing switches.
 342:Generated_Source\PSoC5/cyfitter_cfg.c **** * Intended to be called at startup, based on the Vdda system configuration;
 343:Generated_Source\PSoC5/cyfitter_cfg.c **** * may be called during operation when the user informs us that the Vdda voltage
 344:Generated_Source\PSoC5/cyfitter_cfg.c **** * crossed the pump threshold.
 345:Generated_Source\PSoC5/cyfitter_cfg.c **** *
 346:Generated_Source\PSoC5/cyfitter_cfg.c **** * Parameters:
 347:Generated_Source\PSoC5/cyfitter_cfg.c **** *  enabled - 1 to enable the pumps, 0 to disable the pumps
 348:Generated_Source\PSoC5/cyfitter_cfg.c **** *
 349:Generated_Source\PSoC5/cyfitter_cfg.c **** * Return:
 350:Generated_Source\PSoC5/cyfitter_cfg.c **** *  void
 351:Generated_Source\PSoC5/cyfitter_cfg.c **** *
ARM GAS  C:\Users\almsk\AppData\Local\Temp\ccYTaeMb.s 			page 18


 352:Generated_Source\PSoC5/cyfitter_cfg.c **** *******************************************************************************/
 353:Generated_Source\PSoC5/cyfitter_cfg.c **** void SetAnalogRoutingPumps(uint8 enabled)
 354:Generated_Source\PSoC5/cyfitter_cfg.c **** {
 613              		.loc 1 354 0
 614              		.cfi_startproc
 615              		@ args = 0, pretend = 0, frame = 16
 616              		@ frame_needed = 1, uses_anonymous_args = 0
 617              		@ link register save eliminated.
 618 0000 80B4     		push	{r7}
 619              		.cfi_def_cfa_offset 4
 620              		.cfi_offset 7, -4
 621 0002 85B0     		sub	sp, sp, #20
 622              		.cfi_def_cfa_offset 24
 623 0004 00AF     		add	r7, sp, #0
 624              		.cfi_def_cfa_register 7
 625 0006 0346     		mov	r3, r0
 626 0008 FB71     		strb	r3, [r7, #7]
 355:Generated_Source\PSoC5/cyfitter_cfg.c **** 	uint8 regValue = CY_GET_XTND_REG8((void CYFAR *)CYREG_PUMP_CR0);
 627              		.loc 1 355 0
 628 000a 0B4B     		ldr	r3, .L24
 629 000c 1B78     		ldrb	r3, [r3]
 630 000e FB73     		strb	r3, [r7, #15]
 356:Generated_Source\PSoC5/cyfitter_cfg.c **** 	if (enabled != 0u)
 631              		.loc 1 356 0
 632 0010 FB79     		ldrb	r3, [r7, #7]	@ zero_extendqisi2
 633 0012 002B     		cmp	r3, #0
 634 0014 04D0     		beq	.L22
 357:Generated_Source\PSoC5/cyfitter_cfg.c **** 	{
 358:Generated_Source\PSoC5/cyfitter_cfg.c **** 		regValue |= 0x22u;
 635              		.loc 1 358 0
 636 0016 FB7B     		ldrb	r3, [r7, #15]
 637 0018 43F02203 		orr	r3, r3, #34
 638 001c FB73     		strb	r3, [r7, #15]
 639 001e 03E0     		b	.L23
 640              	.L22:
 359:Generated_Source\PSoC5/cyfitter_cfg.c **** 	}
 360:Generated_Source\PSoC5/cyfitter_cfg.c **** 	else
 361:Generated_Source\PSoC5/cyfitter_cfg.c **** 	{
 362:Generated_Source\PSoC5/cyfitter_cfg.c **** 		regValue &= (uint8)~0x22u;
 641              		.loc 1 362 0
 642 0020 FB7B     		ldrb	r3, [r7, #15]
 643 0022 23F02203 		bic	r3, r3, #34
 644 0026 FB73     		strb	r3, [r7, #15]
 645              	.L23:
 363:Generated_Source\PSoC5/cyfitter_cfg.c **** 	}
 364:Generated_Source\PSoC5/cyfitter_cfg.c **** 	CY_SET_XTND_REG8((void CYFAR *)CYREG_PUMP_CR0, regValue);
 646              		.loc 1 364 0
 647 0028 034A     		ldr	r2, .L24
 648 002a FB7B     		ldrb	r3, [r7, #15]
 649 002c 1370     		strb	r3, [r2]
 365:Generated_Source\PSoC5/cyfitter_cfg.c **** }
 650              		.loc 1 365 0
 651 002e 00BF     		nop
 652 0030 1437     		adds	r7, r7, #20
 653              		.cfi_def_cfa_offset 4
 654 0032 BD46     		mov	sp, r7
 655              		.cfi_def_cfa_register 13
ARM GAS  C:\Users\almsk\AppData\Local\Temp\ccYTaeMb.s 			page 19


 656              		@ sp needed
 657 0034 80BC     		pop	{r7}
 658              		.cfi_restore 7
 659              		.cfi_def_cfa_offset 0
 660 0036 7047     		bx	lr
 661              	.L25:
 662              		.align	2
 663              	.L24:
 664 0038 76580040 		.word	1073764470
 665              		.cfi_endproc
 666              	.LFE7:
 667              		.size	SetAnalogRoutingPumps, .-SetAnalogRoutingPumps
 668              		.global	AMux_1__addrTable
 669              		.section	.rodata
 670              		.align	2
 671              		.type	AMux_1__addrTable, %object
 672              		.size	AMux_1__addrTable, 16
 673              	AMux_1__addrTable:
 674 0000 1D510040 		.word	1073762589
 675 0004 285B0040 		.word	1073765160
 676 0008 1D510040 		.word	1073762589
 677 000c 285B0040 		.word	1073765160
 678              		.global	AMux_1__maskTable
 679              		.align	2
 680              		.type	AMux_1__maskTable, %object
 681              		.size	AMux_1__maskTable, 4
 682              	AMux_1__maskTable:
 683 0010 40       		.byte	64
 684 0011 04       		.byte	4
 685 0012 20       		.byte	32
 686 0013 02       		.byte	2
 687              		.section	.text.AMux_1_Set,"ax",%progbits
 688              		.align	2
 689              		.global	AMux_1_Set
 690              		.thumb
 691              		.thumb_func
 692              		.type	AMux_1_Set, %function
 693              	AMux_1_Set:
 694              	.LFB8:
 366:Generated_Source\PSoC5/cyfitter_cfg.c **** 
 367:Generated_Source\PSoC5/cyfitter_cfg.c **** 
 368:Generated_Source\PSoC5/cyfitter_cfg.c **** #define CY_AMUX_UNUSED CYREG_BOOST_SR
 369:Generated_Source\PSoC5/cyfitter_cfg.c **** /* This is an implementation detail of the AMux. Code that depends on it may be
 370:Generated_Source\PSoC5/cyfitter_cfg.c ****    incompatible with other versions of PSoC Creator. */
 371:Generated_Source\PSoC5/cyfitter_cfg.c **** uint8 CYXDATA * const CYCODE AMux_1__addrTable[4] = {
 372:Generated_Source\PSoC5/cyfitter_cfg.c **** 	(uint8 CYXDATA *)CYREG_PRT1_AG, (uint8 CYXDATA *)CYREG_SAR1_SW0, 
 373:Generated_Source\PSoC5/cyfitter_cfg.c **** 	(uint8 CYXDATA *)CYREG_PRT1_AG, (uint8 CYXDATA *)CYREG_SAR1_SW0, 
 374:Generated_Source\PSoC5/cyfitter_cfg.c **** };
 375:Generated_Source\PSoC5/cyfitter_cfg.c **** 
 376:Generated_Source\PSoC5/cyfitter_cfg.c **** /* This is an implementation detail of the AMux. Code that depends on it may be
 377:Generated_Source\PSoC5/cyfitter_cfg.c ****    incompatible with other versions of PSoC Creator. */
 378:Generated_Source\PSoC5/cyfitter_cfg.c **** const uint8 CYCODE AMux_1__maskTable[4] = {
 379:Generated_Source\PSoC5/cyfitter_cfg.c **** 	0x40u, 0x04u, 
 380:Generated_Source\PSoC5/cyfitter_cfg.c **** 	0x20u, 0x02u, 
 381:Generated_Source\PSoC5/cyfitter_cfg.c **** };
 382:Generated_Source\PSoC5/cyfitter_cfg.c **** 
 383:Generated_Source\PSoC5/cyfitter_cfg.c **** /*******************************************************************************
ARM GAS  C:\Users\almsk\AppData\Local\Temp\ccYTaeMb.s 			page 20


 384:Generated_Source\PSoC5/cyfitter_cfg.c **** * Function Name: AMux_1_Set
 385:Generated_Source\PSoC5/cyfitter_cfg.c **** ********************************************************************************
 386:Generated_Source\PSoC5/cyfitter_cfg.c **** * Summary:
 387:Generated_Source\PSoC5/cyfitter_cfg.c **** *  This function is used to set a particular channel as active on the AMux.
 388:Generated_Source\PSoC5/cyfitter_cfg.c **** *
 389:Generated_Source\PSoC5/cyfitter_cfg.c **** * Parameters:  
 390:Generated_Source\PSoC5/cyfitter_cfg.c **** *   channel - The mux channel input to set as active
 391:Generated_Source\PSoC5/cyfitter_cfg.c **** *
 392:Generated_Source\PSoC5/cyfitter_cfg.c **** * Return:
 393:Generated_Source\PSoC5/cyfitter_cfg.c **** *   void
 394:Generated_Source\PSoC5/cyfitter_cfg.c **** *
 395:Generated_Source\PSoC5/cyfitter_cfg.c **** *******************************************************************************/
 396:Generated_Source\PSoC5/cyfitter_cfg.c **** void AMux_1_Set(uint8 channel)
 397:Generated_Source\PSoC5/cyfitter_cfg.c **** {
 695              		.loc 1 397 0
 696              		.cfi_startproc
 697              		@ args = 0, pretend = 0, frame = 8
 698              		@ frame_needed = 1, uses_anonymous_args = 0
 699              		@ link register save eliminated.
 700 0000 80B4     		push	{r7}
 701              		.cfi_def_cfa_offset 4
 702              		.cfi_offset 7, -4
 703 0002 83B0     		sub	sp, sp, #12
 704              		.cfi_def_cfa_offset 16
 705 0004 00AF     		add	r7, sp, #0
 706              		.cfi_def_cfa_register 7
 707 0006 0346     		mov	r3, r0
 708 0008 FB71     		strb	r3, [r7, #7]
 398:Generated_Source\PSoC5/cyfitter_cfg.c **** 	if (channel < 2)
 709              		.loc 1 398 0
 710 000a FB79     		ldrb	r3, [r7, #7]	@ zero_extendqisi2
 711 000c 012B     		cmp	r3, #1
 712 000e 24D8     		bhi	.L28
 399:Generated_Source\PSoC5/cyfitter_cfg.c **** 	{
 400:Generated_Source\PSoC5/cyfitter_cfg.c **** 		channel += channel;
 713              		.loc 1 400 0
 714 0010 FA79     		ldrb	r2, [r7, #7]
 715 0012 FB79     		ldrb	r3, [r7, #7]
 716 0014 1344     		add	r3, r3, r2
 717 0016 FB71     		strb	r3, [r7, #7]
 401:Generated_Source\PSoC5/cyfitter_cfg.c **** 		*AMux_1__addrTable[channel] |= AMux_1__maskTable[channel];
 718              		.loc 1 401 0
 719 0018 FB79     		ldrb	r3, [r7, #7]	@ zero_extendqisi2
 720 001a 124A     		ldr	r2, .L29
 721 001c 52F82330 		ldr	r3, [r2, r3, lsl #2]
 722 0020 FA79     		ldrb	r2, [r7, #7]	@ zero_extendqisi2
 723 0022 1049     		ldr	r1, .L29
 724 0024 51F82220 		ldr	r2, [r1, r2, lsl #2]
 725 0028 1178     		ldrb	r1, [r2]	@ zero_extendqisi2
 726 002a FA79     		ldrb	r2, [r7, #7]	@ zero_extendqisi2
 727 002c 0E48     		ldr	r0, .L29+4
 728 002e 825C     		ldrb	r2, [r0, r2]	@ zero_extendqisi2
 729 0030 0A43     		orrs	r2, r2, r1
 730 0032 D2B2     		uxtb	r2, r2
 731 0034 1A70     		strb	r2, [r3]
 402:Generated_Source\PSoC5/cyfitter_cfg.c **** 		channel++;
 732              		.loc 1 402 0
ARM GAS  C:\Users\almsk\AppData\Local\Temp\ccYTaeMb.s 			page 21


 733 0036 FB79     		ldrb	r3, [r7, #7]	@ zero_extendqisi2
 734 0038 0133     		adds	r3, r3, #1
 735 003a FB71     		strb	r3, [r7, #7]
 403:Generated_Source\PSoC5/cyfitter_cfg.c **** 		*AMux_1__addrTable[channel] |= AMux_1__maskTable[channel];
 736              		.loc 1 403 0
 737 003c FB79     		ldrb	r3, [r7, #7]	@ zero_extendqisi2
 738 003e 094A     		ldr	r2, .L29
 739 0040 52F82330 		ldr	r3, [r2, r3, lsl #2]
 740 0044 FA79     		ldrb	r2, [r7, #7]	@ zero_extendqisi2
 741 0046 0749     		ldr	r1, .L29
 742 0048 51F82220 		ldr	r2, [r1, r2, lsl #2]
 743 004c 1178     		ldrb	r1, [r2]	@ zero_extendqisi2
 744 004e FA79     		ldrb	r2, [r7, #7]	@ zero_extendqisi2
 745 0050 0548     		ldr	r0, .L29+4
 746 0052 825C     		ldrb	r2, [r0, r2]	@ zero_extendqisi2
 747 0054 0A43     		orrs	r2, r2, r1
 748 0056 D2B2     		uxtb	r2, r2
 749 0058 1A70     		strb	r2, [r3]
 750              	.L28:
 404:Generated_Source\PSoC5/cyfitter_cfg.c **** 	}
 405:Generated_Source\PSoC5/cyfitter_cfg.c **** }
 751              		.loc 1 405 0
 752 005a 00BF     		nop
 753 005c 0C37     		adds	r7, r7, #12
 754              		.cfi_def_cfa_offset 4
 755 005e BD46     		mov	sp, r7
 756              		.cfi_def_cfa_register 13
 757              		@ sp needed
 758 0060 80BC     		pop	{r7}
 759              		.cfi_restore 7
 760              		.cfi_def_cfa_offset 0
 761 0062 7047     		bx	lr
 762              	.L30:
 763              		.align	2
 764              	.L29:
 765 0064 00000000 		.word	AMux_1__addrTable
 766 0068 00000000 		.word	AMux_1__maskTable
 767              		.cfi_endproc
 768              	.LFE8:
 769              		.size	AMux_1_Set, .-AMux_1_Set
 770              		.section	.text.AMux_1_Unset,"ax",%progbits
 771              		.align	2
 772              		.global	AMux_1_Unset
 773              		.thumb
 774              		.thumb_func
 775              		.type	AMux_1_Unset, %function
 776              	AMux_1_Unset:
 777              	.LFB9:
 406:Generated_Source\PSoC5/cyfitter_cfg.c **** 
 407:Generated_Source\PSoC5/cyfitter_cfg.c **** /*******************************************************************************
 408:Generated_Source\PSoC5/cyfitter_cfg.c **** * Function Name: AMux_1_Unset
 409:Generated_Source\PSoC5/cyfitter_cfg.c **** ********************************************************************************
 410:Generated_Source\PSoC5/cyfitter_cfg.c **** * Summary:
 411:Generated_Source\PSoC5/cyfitter_cfg.c **** *  This function is used to clear a particular channel from being active on the
 412:Generated_Source\PSoC5/cyfitter_cfg.c **** *  AMux.
 413:Generated_Source\PSoC5/cyfitter_cfg.c **** *
 414:Generated_Source\PSoC5/cyfitter_cfg.c **** * Parameters:  
ARM GAS  C:\Users\almsk\AppData\Local\Temp\ccYTaeMb.s 			page 22


 415:Generated_Source\PSoC5/cyfitter_cfg.c **** *   channel - The mux channel input to mark inactive
 416:Generated_Source\PSoC5/cyfitter_cfg.c **** *
 417:Generated_Source\PSoC5/cyfitter_cfg.c **** * Return:
 418:Generated_Source\PSoC5/cyfitter_cfg.c **** *   void
 419:Generated_Source\PSoC5/cyfitter_cfg.c **** *
 420:Generated_Source\PSoC5/cyfitter_cfg.c **** *******************************************************************************/
 421:Generated_Source\PSoC5/cyfitter_cfg.c **** void AMux_1_Unset(uint8 channel)
 422:Generated_Source\PSoC5/cyfitter_cfg.c **** {
 778              		.loc 1 422 0
 779              		.cfi_startproc
 780              		@ args = 0, pretend = 0, frame = 8
 781              		@ frame_needed = 1, uses_anonymous_args = 0
 782              		@ link register save eliminated.
 783 0000 80B4     		push	{r7}
 784              		.cfi_def_cfa_offset 4
 785              		.cfi_offset 7, -4
 786 0002 83B0     		sub	sp, sp, #12
 787              		.cfi_def_cfa_offset 16
 788 0004 00AF     		add	r7, sp, #0
 789              		.cfi_def_cfa_register 7
 790 0006 0346     		mov	r3, r0
 791 0008 FB71     		strb	r3, [r7, #7]
 423:Generated_Source\PSoC5/cyfitter_cfg.c **** 	if (channel < 2)
 792              		.loc 1 423 0
 793 000a FB79     		ldrb	r3, [r7, #7]	@ zero_extendqisi2
 794 000c 012B     		cmp	r3, #1
 795 000e 28D8     		bhi	.L33
 424:Generated_Source\PSoC5/cyfitter_cfg.c **** 	{
 425:Generated_Source\PSoC5/cyfitter_cfg.c **** 		channel += channel;
 796              		.loc 1 425 0
 797 0010 FA79     		ldrb	r2, [r7, #7]
 798 0012 FB79     		ldrb	r3, [r7, #7]
 799 0014 1344     		add	r3, r3, r2
 800 0016 FB71     		strb	r3, [r7, #7]
 426:Generated_Source\PSoC5/cyfitter_cfg.c **** 		*AMux_1__addrTable[channel] &= (uint8)~AMux_1__maskTable[channel];
 801              		.loc 1 426 0
 802 0018 FB79     		ldrb	r3, [r7, #7]	@ zero_extendqisi2
 803 001a 144A     		ldr	r2, .L34
 804 001c 52F82330 		ldr	r3, [r2, r3, lsl #2]
 805 0020 FA79     		ldrb	r2, [r7, #7]	@ zero_extendqisi2
 806 0022 1249     		ldr	r1, .L34
 807 0024 51F82220 		ldr	r2, [r1, r2, lsl #2]
 808 0028 1178     		ldrb	r1, [r2]	@ zero_extendqisi2
 809 002a FA79     		ldrb	r2, [r7, #7]	@ zero_extendqisi2
 810 002c 1048     		ldr	r0, .L34+4
 811 002e 825C     		ldrb	r2, [r0, r2]	@ zero_extendqisi2
 812 0030 D243     		mvns	r2, r2
 813 0032 D2B2     		uxtb	r2, r2
 814 0034 0A40     		ands	r2, r2, r1
 815 0036 D2B2     		uxtb	r2, r2
 816 0038 1A70     		strb	r2, [r3]
 427:Generated_Source\PSoC5/cyfitter_cfg.c **** 		channel++;
 817              		.loc 1 427 0
 818 003a FB79     		ldrb	r3, [r7, #7]	@ zero_extendqisi2
 819 003c 0133     		adds	r3, r3, #1
 820 003e FB71     		strb	r3, [r7, #7]
 428:Generated_Source\PSoC5/cyfitter_cfg.c **** 		*AMux_1__addrTable[channel] &= (uint8)~AMux_1__maskTable[channel];
ARM GAS  C:\Users\almsk\AppData\Local\Temp\ccYTaeMb.s 			page 23


 821              		.loc 1 428 0
 822 0040 FB79     		ldrb	r3, [r7, #7]	@ zero_extendqisi2
 823 0042 0A4A     		ldr	r2, .L34
 824 0044 52F82330 		ldr	r3, [r2, r3, lsl #2]
 825 0048 FA79     		ldrb	r2, [r7, #7]	@ zero_extendqisi2
 826 004a 0849     		ldr	r1, .L34
 827 004c 51F82220 		ldr	r2, [r1, r2, lsl #2]
 828 0050 1178     		ldrb	r1, [r2]	@ zero_extendqisi2
 829 0052 FA79     		ldrb	r2, [r7, #7]	@ zero_extendqisi2
 830 0054 0648     		ldr	r0, .L34+4
 831 0056 825C     		ldrb	r2, [r0, r2]	@ zero_extendqisi2
 832 0058 D243     		mvns	r2, r2
 833 005a D2B2     		uxtb	r2, r2
 834 005c 0A40     		ands	r2, r2, r1
 835 005e D2B2     		uxtb	r2, r2
 836 0060 1A70     		strb	r2, [r3]
 837              	.L33:
 429:Generated_Source\PSoC5/cyfitter_cfg.c **** 	}
 430:Generated_Source\PSoC5/cyfitter_cfg.c **** }
 838              		.loc 1 430 0
 839 0062 00BF     		nop
 840 0064 0C37     		adds	r7, r7, #12
 841              		.cfi_def_cfa_offset 4
 842 0066 BD46     		mov	sp, r7
 843              		.cfi_def_cfa_register 13
 844              		@ sp needed
 845 0068 80BC     		pop	{r7}
 846              		.cfi_restore 7
 847              		.cfi_def_cfa_offset 0
 848 006a 7047     		bx	lr
 849              	.L35:
 850              		.align	2
 851              	.L34:
 852 006c 00000000 		.word	AMux_1__addrTable
 853 0070 00000000 		.word	AMux_1__maskTable
 854              		.cfi_endproc
 855              	.LFE9:
 856              		.size	AMux_1_Unset, .-AMux_1_Unset
 857              		.section	.text.cyfitter_cfg,"ax",%progbits
 858              		.align	2
 859              		.global	cyfitter_cfg
 860              		.thumb
 861              		.thumb_func
 862              		.type	cyfitter_cfg, %function
 863              	cyfitter_cfg:
 864              	.LFB10:
 431:Generated_Source\PSoC5/cyfitter_cfg.c **** 
 432:Generated_Source\PSoC5/cyfitter_cfg.c **** 
 433:Generated_Source\PSoC5/cyfitter_cfg.c **** 
 434:Generated_Source\PSoC5/cyfitter_cfg.c **** /*******************************************************************************
 435:Generated_Source\PSoC5/cyfitter_cfg.c **** * Function Name: cyfitter_cfg
 436:Generated_Source\PSoC5/cyfitter_cfg.c **** ********************************************************************************
 437:Generated_Source\PSoC5/cyfitter_cfg.c **** * Summary:
 438:Generated_Source\PSoC5/cyfitter_cfg.c **** *  This function is called by the start-up code for the selected device. It
 439:Generated_Source\PSoC5/cyfitter_cfg.c **** *  performs all of the necessary device configuration based on the design
 440:Generated_Source\PSoC5/cyfitter_cfg.c **** *  settings.  This includes settings from the Design Wide Resources (DWR) such
 441:Generated_Source\PSoC5/cyfitter_cfg.c **** *  as Clocks and Pins as well as any component configuration that is necessary.
ARM GAS  C:\Users\almsk\AppData\Local\Temp\ccYTaeMb.s 			page 24


 442:Generated_Source\PSoC5/cyfitter_cfg.c **** *
 443:Generated_Source\PSoC5/cyfitter_cfg.c **** * Parameters:
 444:Generated_Source\PSoC5/cyfitter_cfg.c **** *   void
 445:Generated_Source\PSoC5/cyfitter_cfg.c **** *
 446:Generated_Source\PSoC5/cyfitter_cfg.c **** * Return:
 447:Generated_Source\PSoC5/cyfitter_cfg.c **** *   void
 448:Generated_Source\PSoC5/cyfitter_cfg.c **** *
 449:Generated_Source\PSoC5/cyfitter_cfg.c **** *******************************************************************************/
 450:Generated_Source\PSoC5/cyfitter_cfg.c **** 
 451:Generated_Source\PSoC5/cyfitter_cfg.c **** void cyfitter_cfg(void)
 452:Generated_Source\PSoC5/cyfitter_cfg.c **** {
 865              		.loc 1 452 0
 866              		.cfi_startproc
 867              		@ args = 0, pretend = 0, frame = 8
 868              		@ frame_needed = 1, uses_anonymous_args = 0
 869 0000 80B5     		push	{r7, lr}
 870              		.cfi_def_cfa_offset 8
 871              		.cfi_offset 7, -8
 872              		.cfi_offset 14, -4
 873 0002 82B0     		sub	sp, sp, #8
 874              		.cfi_def_cfa_offset 16
 875 0004 00AF     		add	r7, sp, #0
 876              		.cfi_def_cfa_register 7
 453:Generated_Source\PSoC5/cyfitter_cfg.c **** #ifdef CYGlobalIntDisable
 454:Generated_Source\PSoC5/cyfitter_cfg.c **** 	/* Disable interrupts by default. Let user enable if/when they want. */
 455:Generated_Source\PSoC5/cyfitter_cfg.c **** 	CYGlobalIntDisable
 877              		.loc 1 455 0
 878              		.syntax unified
 879              	@ 455 "Generated_Source\PSoC5\cyfitter_cfg.c" 1
 880 0006 72B6     		CPSID   i
 881              	@ 0 "" 2
 456:Generated_Source\PSoC5/cyfitter_cfg.c **** #endif
 457:Generated_Source\PSoC5/cyfitter_cfg.c **** 
 458:Generated_Source\PSoC5/cyfitter_cfg.c **** 	/* Enable/Disable Debug functionality based on settings from System DWR */
 459:Generated_Source\PSoC5/cyfitter_cfg.c **** 	CY_SET_XTND_REG8((void CYFAR *)CYREG_MLOGIC_DEBUG, (CY_GET_XTND_REG8((void CYFAR *)CYREG_MLOGIC_DE
 882              		.loc 1 459 0
 883              		.thumb
 884              		.syntax unified
 885 0008 434A     		ldr	r2, .L39
 886 000a 434B     		ldr	r3, .L39
 887 000c 1B78     		ldrb	r3, [r3]
 888 000e DBB2     		uxtb	r3, r3
 889 0010 43F00403 		orr	r3, r3, #4
 890 0014 DBB2     		uxtb	r3, r3
 891 0016 1370     		strb	r3, [r2]
 892              	.LBB3:
 460:Generated_Source\PSoC5/cyfitter_cfg.c **** 
 461:Generated_Source\PSoC5/cyfitter_cfg.c **** 	{
 462:Generated_Source\PSoC5/cyfitter_cfg.c **** 
 463:Generated_Source\PSoC5/cyfitter_cfg.c **** 		CYPACKED typedef struct {
 464:Generated_Source\PSoC5/cyfitter_cfg.c **** 			void CYFAR *address;
 465:Generated_Source\PSoC5/cyfitter_cfg.c **** 			uint16 size;
 466:Generated_Source\PSoC5/cyfitter_cfg.c **** 		} CYPACKED_ATTR cfg_memset_t;
 467:Generated_Source\PSoC5/cyfitter_cfg.c **** 
 468:Generated_Source\PSoC5/cyfitter_cfg.c **** 		static const cfg_memset_t CYCODE cfg_memset_list[] = {
 469:Generated_Source\PSoC5/cyfitter_cfg.c **** 			/* address, size */
 470:Generated_Source\PSoC5/cyfitter_cfg.c **** 			{(void CYFAR *)(CYREG_PRT4_DR), 48u},
ARM GAS  C:\Users\almsk\AppData\Local\Temp\ccYTaeMb.s 			page 25


 471:Generated_Source\PSoC5/cyfitter_cfg.c **** 			{(void CYFAR *)(CYREG_PRT15_DR), 16u},
 472:Generated_Source\PSoC5/cyfitter_cfg.c **** 			{(void CYFAR *)(CYDEV_UCFG_B0_P0_U0_BASE), 4096u},
 473:Generated_Source\PSoC5/cyfitter_cfg.c **** 			{(void CYFAR *)(CYDEV_UCFG_B1_P2_U0_BASE), 2048u},
 474:Generated_Source\PSoC5/cyfitter_cfg.c **** 			{(void CYFAR *)(CYDEV_UCFG_DSI0_BASE), 2560u},
 475:Generated_Source\PSoC5/cyfitter_cfg.c **** 			{(void CYFAR *)(CYDEV_UCFG_DSI12_BASE), 512u},
 476:Generated_Source\PSoC5/cyfitter_cfg.c **** 			{(void CYFAR *)(CYREG_BCTL0_MDCLK_EN), 32u},
 477:Generated_Source\PSoC5/cyfitter_cfg.c **** 		};
 478:Generated_Source\PSoC5/cyfitter_cfg.c **** 
 479:Generated_Source\PSoC5/cyfitter_cfg.c **** 		uint8 CYDATA i;
 480:Generated_Source\PSoC5/cyfitter_cfg.c **** 
 481:Generated_Source\PSoC5/cyfitter_cfg.c **** 		/* Zero out critical memory blocks before beginning configuration */
 482:Generated_Source\PSoC5/cyfitter_cfg.c **** 		for (i = 0u; i < (sizeof(cfg_memset_list)/sizeof(cfg_memset_list[0])); i++)
 893              		.loc 1 482 0
 894 0018 0023     		movs	r3, #0
 895 001a FB71     		strb	r3, [r7, #7]
 896 001c 13E0     		b	.L37
 897              	.L38:
 898              	.LBB4:
 483:Generated_Source\PSoC5/cyfitter_cfg.c **** 		{
 484:Generated_Source\PSoC5/cyfitter_cfg.c **** 			const cfg_memset_t CYCODE * CYDATA ms = &cfg_memset_list[i];
 899              		.loc 1 484 0 discriminator 3
 900 001e FA79     		ldrb	r2, [r7, #7]	@ zero_extendqisi2
 901 0020 1346     		mov	r3, r2
 902 0022 5B00     		lsls	r3, r3, #1
 903 0024 1344     		add	r3, r3, r2
 904 0026 5B00     		lsls	r3, r3, #1
 905 0028 3C4A     		ldr	r2, .L39+4
 906 002a 1344     		add	r3, r3, r2
 907 002c 3B60     		str	r3, [r7]
 485:Generated_Source\PSoC5/cyfitter_cfg.c **** 			CYMEMZERO(ms->address, (size_t)(uint32)(ms->size));
 908              		.loc 1 485 0 discriminator 3
 909 002e 3B68     		ldr	r3, [r7]
 910 0030 1A68     		ldr	r2, [r3]	@ unaligned
 911 0032 3B68     		ldr	r3, [r7]
 912 0034 9B88     		ldrh	r3, [r3, #4]	@ unaligned
 913 0036 9BB2     		uxth	r3, r3
 914 0038 1946     		mov	r1, r3
 915 003a 1046     		mov	r0, r2
 916 003c FFF7FEFF 		bl	CYMEMZERO
 917              	.LBE4:
 482:Generated_Source\PSoC5/cyfitter_cfg.c **** 		{
 918              		.loc 1 482 0 discriminator 3
 919 0040 FB79     		ldrb	r3, [r7, #7]	@ zero_extendqisi2
 920 0042 0133     		adds	r3, r3, #1
 921 0044 FB71     		strb	r3, [r7, #7]
 922              	.L37:
 482:Generated_Source\PSoC5/cyfitter_cfg.c **** 		{
 923              		.loc 1 482 0 is_stmt 0 discriminator 1
 924 0046 FB79     		ldrb	r3, [r7, #7]	@ zero_extendqisi2
 925 0048 062B     		cmp	r3, #6
 926 004a E8D9     		bls	.L38
 486:Generated_Source\PSoC5/cyfitter_cfg.c **** 		}
 487:Generated_Source\PSoC5/cyfitter_cfg.c **** 
 488:Generated_Source\PSoC5/cyfitter_cfg.c **** 		cfg_write_bytes32(cy_cfg_addr_table, cy_cfg_data_table);
 927              		.loc 1 488 0 is_stmt 1
 928 004c 3449     		ldr	r1, .L39+8
 929 004e 4FF09040 		mov	r0, #1207959552
ARM GAS  C:\Users\almsk\AppData\Local\Temp\ccYTaeMb.s 			page 26


 930 0052 FFF7FEFF 		bl	cfg_write_bytes32
 489:Generated_Source\PSoC5/cyfitter_cfg.c **** 
 490:Generated_Source\PSoC5/cyfitter_cfg.c **** 		/* Perform normal device configuration. Order is not critical for these items. */
 491:Generated_Source\PSoC5/cyfitter_cfg.c **** 		CYMEMZERO((void CYFAR *)(CYREG_PHUB_CFGMEM0_CFG0), 4u);
 931              		.loc 1 491 0
 932 0056 0421     		movs	r1, #4
 933 0058 3248     		ldr	r0, .L39+12
 934 005a FFF7FEFF 		bl	CYMEMZERO
 492:Generated_Source\PSoC5/cyfitter_cfg.c **** 		CYCONFIGCPY((void CYFAR *)(CYREG_PHUB_CFGMEM1_CFG0), (const void CYFAR *)(BS_PHUB_CFGMEM1_VAL), 4
 935              		.loc 1 492 0
 936 005e 0422     		movs	r2, #4
 937 0060 3149     		ldr	r1, .L39+16
 938 0062 3248     		ldr	r0, .L39+20
 939 0064 FFF7FEFF 		bl	CYCONFIGCPY
 493:Generated_Source\PSoC5/cyfitter_cfg.c **** 
 494:Generated_Source\PSoC5/cyfitter_cfg.c **** 		/* Enable digital routing */
 495:Generated_Source\PSoC5/cyfitter_cfg.c **** 		CY_SET_XTND_REG8((void CYFAR *)CYREG_BCTL0_BANK_CTL, CY_GET_XTND_REG8((void CYFAR *)CYREG_BCTL0_B
 940              		.loc 1 495 0
 941 0068 314A     		ldr	r2, .L39+24
 942 006a 314B     		ldr	r3, .L39+24
 943 006c 1B78     		ldrb	r3, [r3]
 944 006e DBB2     		uxtb	r3, r3
 945 0070 43F00203 		orr	r3, r3, #2
 946 0074 DBB2     		uxtb	r3, r3
 947 0076 1370     		strb	r3, [r2]
 496:Generated_Source\PSoC5/cyfitter_cfg.c **** 		CY_SET_XTND_REG8((void CYFAR *)CYREG_BCTL1_BANK_CTL, CY_GET_XTND_REG8((void CYFAR *)CYREG_BCTL1_B
 948              		.loc 1 496 0
 949 0078 2E4A     		ldr	r2, .L39+28
 950 007a 2E4B     		ldr	r3, .L39+28
 951 007c 1B78     		ldrb	r3, [r3]
 952 007e DBB2     		uxtb	r3, r3
 953 0080 43F00203 		orr	r3, r3, #2
 954 0084 DBB2     		uxtb	r3, r3
 955 0086 1370     		strb	r3, [r2]
 497:Generated_Source\PSoC5/cyfitter_cfg.c **** 
 498:Generated_Source\PSoC5/cyfitter_cfg.c **** 		/* Enable UDB array */
 499:Generated_Source\PSoC5/cyfitter_cfg.c **** 		CY_SET_XTND_REG8((void CYFAR *)CYREG_PM_ACT_CFG0, CY_GET_XTND_REG8((void CYFAR *)CYREG_PM_ACT_CFG
 956              		.loc 1 499 0
 957 0088 2B4A     		ldr	r2, .L39+32
 958 008a 2B4B     		ldr	r3, .L39+32
 959 008c 1B78     		ldrb	r3, [r3]
 960 008e DBB2     		uxtb	r3, r3
 961 0090 43F04003 		orr	r3, r3, #64
 962 0094 DBB2     		uxtb	r3, r3
 963 0096 1370     		strb	r3, [r2]
 500:Generated_Source\PSoC5/cyfitter_cfg.c **** 		CY_SET_XTND_REG8((void CYFAR *)CYREG_PM_AVAIL_CR2, CY_GET_XTND_REG8((void CYFAR *)CYREG_PM_AVAIL_
 964              		.loc 1 500 0
 965 0098 284A     		ldr	r2, .L39+36
 966 009a 284B     		ldr	r3, .L39+36
 967 009c 1B78     		ldrb	r3, [r3]
 968 009e DBB2     		uxtb	r3, r3
 969 00a0 43F01003 		orr	r3, r3, #16
 970 00a4 DBB2     		uxtb	r3, r3
 971 00a6 1370     		strb	r3, [r2]
 972              	.LBE3:
 501:Generated_Source\PSoC5/cyfitter_cfg.c **** 	}
 502:Generated_Source\PSoC5/cyfitter_cfg.c **** 
ARM GAS  C:\Users\almsk\AppData\Local\Temp\ccYTaeMb.s 			page 27


 503:Generated_Source\PSoC5/cyfitter_cfg.c **** 
 504:Generated_Source\PSoC5/cyfitter_cfg.c **** 	/* Perform second pass device configuration. These items must be configured in specific order afte
 505:Generated_Source\PSoC5/cyfitter_cfg.c **** 	CYCONFIGCPY((void CYFAR *)(CYREG_PRT0_DM0), (const void CYFAR *)(BS_IOPINS0_0_VAL), 8u);
 973              		.loc 1 505 0
 974 00a8 0822     		movs	r2, #8
 975 00aa 2549     		ldr	r1, .L39+40
 976 00ac 2548     		ldr	r0, .L39+44
 977 00ae FFF7FEFF 		bl	CYCONFIGCPY
 506:Generated_Source\PSoC5/cyfitter_cfg.c **** 	CYCONFIGCPY((void CYFAR *)(CYREG_PRT12_DR), (const void CYFAR *)(BS_IOPINS0_7_VAL), 10u);
 978              		.loc 1 506 0
 979 00b2 0A22     		movs	r2, #10
 980 00b4 2449     		ldr	r1, .L39+48
 981 00b6 2548     		ldr	r0, .L39+52
 982 00b8 FFF7FEFF 		bl	CYCONFIGCPY
 507:Generated_Source\PSoC5/cyfitter_cfg.c **** 	CYCONFIGCPY((void CYFAR *)(CYREG_PRT1_DM0), (const void CYFAR *)(BS_IOPINS0_1_VAL), 8u);
 983              		.loc 1 507 0
 984 00bc 0822     		movs	r2, #8
 985 00be 2449     		ldr	r1, .L39+56
 986 00c0 2448     		ldr	r0, .L39+60
 987 00c2 FFF7FEFF 		bl	CYCONFIGCPY
 508:Generated_Source\PSoC5/cyfitter_cfg.c **** 	CYCONFIGCPY((void CYFAR *)(CYREG_PRT2_DR), (const void CYFAR *)(BS_IOPINS0_2_VAL), 10u);
 988              		.loc 1 508 0
 989 00c6 0A22     		movs	r2, #10
 990 00c8 2349     		ldr	r1, .L39+64
 991 00ca 2448     		ldr	r0, .L39+68
 992 00cc FFF7FEFF 		bl	CYCONFIGCPY
 509:Generated_Source\PSoC5/cyfitter_cfg.c **** 	CYCONFIGCPY((void CYFAR *)(CYREG_PRT3_DM0), (const void CYFAR *)(BS_IOPINS0_3_VAL), 8u);
 993              		.loc 1 509 0
 994 00d0 0822     		movs	r2, #8
 995 00d2 2349     		ldr	r1, .L39+72
 996 00d4 2348     		ldr	r0, .L39+76
 997 00d6 FFF7FEFF 		bl	CYCONFIGCPY
 510:Generated_Source\PSoC5/cyfitter_cfg.c **** 	/* Switch Boost to the precision bandgap reference from its internal reference */
 511:Generated_Source\PSoC5/cyfitter_cfg.c **** 	CY_SET_REG8((void CYXDATA *)CYREG_BOOST_CR2, (CY_GET_REG8((void CYXDATA *)CYREG_BOOST_CR2) | 0x08u
 998              		.loc 1 511 0
 999 00da 234A     		ldr	r2, .L39+80
 1000 00dc 224B     		ldr	r3, .L39+80
 1001 00de 1B78     		ldrb	r3, [r3]
 1002 00e0 DBB2     		uxtb	r3, r3
 1003 00e2 43F00803 		orr	r3, r3, #8
 1004 00e6 DBB2     		uxtb	r3, r3
 1005 00e8 1370     		strb	r3, [r2]
 512:Generated_Source\PSoC5/cyfitter_cfg.c **** 
 513:Generated_Source\PSoC5/cyfitter_cfg.c **** 	/* Set Flash Cycles based on max possible frequency in case a glitch occurs during ClockSetup(). *
 514:Generated_Source\PSoC5/cyfitter_cfg.c **** 	CY_SET_XTND_REG8((void CYFAR *)(CYREG_CACHE_CC_CTL), (((CYDEV_INSTRUCT_CACHE_ENABLED) != 0) ? 0x61
 1006              		.loc 1 514 0
 1007 00ea 204B     		ldr	r3, .L39+84
 1008 00ec 6122     		movs	r2, #97
 1009 00ee 1A70     		strb	r2, [r3]
 515:Generated_Source\PSoC5/cyfitter_cfg.c **** 	/* Setup clocks based on selections from Clock DWR */
 516:Generated_Source\PSoC5/cyfitter_cfg.c **** 	ClockSetup();
 1010              		.loc 1 516 0
 1011 00f0 FFF7FEFF 		bl	ClockSetup
 517:Generated_Source\PSoC5/cyfitter_cfg.c **** 	/* Set Flash Cycles based on newly configured 34.00MHz Bus Clock. */
 518:Generated_Source\PSoC5/cyfitter_cfg.c **** 	CY_SET_XTND_REG8((void CYFAR *)(CYREG_CACHE_CC_CTL), (((CYDEV_INSTRUCT_CACHE_ENABLED) != 0) ? 0xC1
 1012              		.loc 1 518 0
 1013 00f4 1D4B     		ldr	r3, .L39+84
ARM GAS  C:\Users\almsk\AppData\Local\Temp\ccYTaeMb.s 			page 28


 1014 00f6 C122     		movs	r2, #193
 1015 00f8 1A70     		strb	r2, [r3]
 519:Generated_Source\PSoC5/cyfitter_cfg.c **** 	CY_SET_XTND_REG8((void CYFAR *)(CYREG_PANTHER_WAITPIPE), 0x01u);
 1016              		.loc 1 519 0
 1017 00fa 1D4B     		ldr	r3, .L39+88
 1018 00fc 0122     		movs	r2, #1
 1019 00fe 1A70     		strb	r2, [r3]
 520:Generated_Source\PSoC5/cyfitter_cfg.c **** 
 521:Generated_Source\PSoC5/cyfitter_cfg.c **** 	/* Perform basic analog initialization to defaults */
 522:Generated_Source\PSoC5/cyfitter_cfg.c **** 	AnalogSetDefault();
 1020              		.loc 1 522 0
 1021 0100 FFF7FEFF 		bl	AnalogSetDefault
 523:Generated_Source\PSoC5/cyfitter_cfg.c **** 
 524:Generated_Source\PSoC5/cyfitter_cfg.c **** 	/* Configure alternate active mode */
 525:Generated_Source\PSoC5/cyfitter_cfg.c **** 	CYCONFIGCPY((void CYFAR *)CYDEV_PM_STBY_BASE, (const void CYFAR *)CYDEV_PM_ACT_BASE, 14u);
 1022              		.loc 1 525 0
 1023 0104 0E22     		movs	r2, #14
 1024 0106 0C49     		ldr	r1, .L39+32
 1025 0108 1A48     		ldr	r0, .L39+92
 1026 010a FFF7FEFF 		bl	CYCONFIGCPY
 526:Generated_Source\PSoC5/cyfitter_cfg.c **** }
 1027              		.loc 1 526 0
 1028 010e 00BF     		nop
 1029 0110 0837     		adds	r7, r7, #8
 1030              		.cfi_def_cfa_offset 8
 1031 0112 BD46     		mov	sp, r7
 1032              		.cfi_def_cfa_register 13
 1033              		@ sp needed
 1034 0114 80BD     		pop	{r7, pc}
 1035              	.L40:
 1036 0116 00BF     		.align	2
 1037              	.L39:
 1038 0118 E8460040 		.word	1073759976
 1039 011c 14000000 		.word	cfg_memset_list.5029
 1040 0120 70000048 		.word	1207959664
 1041 0124 00760040 		.word	1073772032
 1042 0128 DC050048 		.word	1207961052
 1043 012c 08760040 		.word	1073772040
 1044 0130 03500140 		.word	1073827843
 1045 0134 13500140 		.word	1073827859
 1046 0138 A0430040 		.word	1073759136
 1047 013c C2430040 		.word	1073759170
 1048 0140 A8050048 		.word	1207961000
 1049 0144 02510040 		.word	1073762562
 1050 0148 B0050048 		.word	1207961008
 1051 014c C0510040 		.word	1073762752
 1052 0150 BC050048 		.word	1207961020
 1053 0154 12510040 		.word	1073762578
 1054 0158 C4050048 		.word	1207961028
 1055 015c 20510040 		.word	1073762592
 1056 0160 D0050048 		.word	1207961040
 1057 0164 32510040 		.word	1073762610
 1058 0168 22430040 		.word	1073759010
 1059 016c 00480040 		.word	1073760256
 1060 0170 04000840 		.word	1074266116
 1061 0174 B0430040 		.word	1073759152
 1062              		.cfi_endproc
ARM GAS  C:\Users\almsk\AppData\Local\Temp\ccYTaeMb.s 			page 29


 1063              	.LFE10:
 1064              		.size	cyfitter_cfg, .-cyfitter_cfg
 1065              		.section	.rodata
 1066              		.align	2
 1067              		.type	cfg_memset_list.5029, %object
 1068              		.size	cfg_memset_list.5029, 42
 1069              	cfg_memset_list.5029:
 1070 0014 40510040 		.word	1073762624
 1071 0018 3000     		.short	48
 1072 001a F0510040 		.4byte	1073762800
 1073 001e 1000     		.short	16
 1074 0020 00000140 		.word	1073807360
 1075 0024 0010     		.short	4096
 1076 0026 00140140 		.4byte	1073812480
 1077 002a 0008     		.short	2048
 1078 002c 00400140 		.word	1073823744
 1079 0030 000A     		.short	2560
 1080 0032 004C0140 		.4byte	1073826816
 1081 0036 0002     		.short	512
 1082 0038 00500140 		.word	1073827840
 1083 003c 2000     		.short	32
 1084              		.text
 1085              	.Letext0:
 1086              		.file 2 "c:\\program files (x86)\\cypress\\psoc creator\\4.2\\psoc creator\\import\\gnu\\arm\\5.4.
 1087              		.file 3 "Generated_Source\\PSoC5\\cytypes.h"