ARM GAS  C:\Users\almsk\AppData\Local\Temp\ccyMdYdm.s 			page 1


   1              		.syntax unified
   2              		.cpu cortex-m3
   3              		.fpu softvfp
   4              		.eabi_attribute 20, 1
   5              		.eabi_attribute 21, 1
   6              		.eabi_attribute 23, 3
   7              		.eabi_attribute 24, 1
   8              		.eabi_attribute 25, 1
   9              		.eabi_attribute 26, 1
  10              		.eabi_attribute 30, 6
  11              		.eabi_attribute 34, 1
  12              		.eabi_attribute 18, 4
  13              		.thumb
  14              		.syntax unified
  15              		.file	"ISR_Sw.c"
  16              		.text
  17              	.Ltext0:
  18              		.cfi_sections	.debug_frame
  19              		.section	.text.ISR_Sw_Start,"ax",%progbits
  20              		.align	2
  21              		.global	ISR_Sw_Start
  22              		.thumb
  23              		.thumb_func
  24              		.type	ISR_Sw_Start, %function
  25              	ISR_Sw_Start:
  26              	.LFB0:
  27              		.file 1 "Generated_Source\\PSoC5\\ISR_Sw.c"
   1:Generated_Source\PSoC5/ISR_Sw.c **** /*******************************************************************************
   2:Generated_Source\PSoC5/ISR_Sw.c **** * File Name: ISR_Sw.c  
   3:Generated_Source\PSoC5/ISR_Sw.c **** * Version 1.70
   4:Generated_Source\PSoC5/ISR_Sw.c **** *
   5:Generated_Source\PSoC5/ISR_Sw.c **** *  Description:
   6:Generated_Source\PSoC5/ISR_Sw.c **** *   API for controlling the state of an interrupt.
   7:Generated_Source\PSoC5/ISR_Sw.c **** *
   8:Generated_Source\PSoC5/ISR_Sw.c **** *
   9:Generated_Source\PSoC5/ISR_Sw.c **** *  Note:
  10:Generated_Source\PSoC5/ISR_Sw.c **** *
  11:Generated_Source\PSoC5/ISR_Sw.c **** ********************************************************************************
  12:Generated_Source\PSoC5/ISR_Sw.c **** * Copyright 2008-2015, Cypress Semiconductor Corporation.  All rights reserved.
  13:Generated_Source\PSoC5/ISR_Sw.c **** * You may use this file only in accordance with the license, terms, conditions, 
  14:Generated_Source\PSoC5/ISR_Sw.c **** * disclaimers, and limitations in the end user license agreement accompanying 
  15:Generated_Source\PSoC5/ISR_Sw.c **** * the software package with which this file was provided.
  16:Generated_Source\PSoC5/ISR_Sw.c **** *******************************************************************************/
  17:Generated_Source\PSoC5/ISR_Sw.c **** 
  18:Generated_Source\PSoC5/ISR_Sw.c **** 
  19:Generated_Source\PSoC5/ISR_Sw.c **** #include <cydevice_trm.h>
  20:Generated_Source\PSoC5/ISR_Sw.c **** #include <CyLib.h>
  21:Generated_Source\PSoC5/ISR_Sw.c **** #include <ISR_Sw.h>
  22:Generated_Source\PSoC5/ISR_Sw.c **** #include "cyapicallbacks.h"
  23:Generated_Source\PSoC5/ISR_Sw.c **** 
  24:Generated_Source\PSoC5/ISR_Sw.c **** #if !defined(ISR_Sw__REMOVED) /* Check for removal by optimization */
  25:Generated_Source\PSoC5/ISR_Sw.c **** 
  26:Generated_Source\PSoC5/ISR_Sw.c **** /*******************************************************************************
  27:Generated_Source\PSoC5/ISR_Sw.c **** *  Place your includes, defines and code here 
  28:Generated_Source\PSoC5/ISR_Sw.c **** ********************************************************************************/
  29:Generated_Source\PSoC5/ISR_Sw.c **** /* `#START ISR_Sw_intc` */
  30:Generated_Source\PSoC5/ISR_Sw.c ****     #include "PIN_SWITCH.h"
ARM GAS  C:\Users\almsk\AppData\Local\Temp\ccyMdYdm.s 			page 2


  31:Generated_Source\PSoC5/ISR_Sw.c ****     extern volatile uint8 switch_flag;
  32:Generated_Source\PSoC5/ISR_Sw.c **** /* `#END` */
  33:Generated_Source\PSoC5/ISR_Sw.c **** 
  34:Generated_Source\PSoC5/ISR_Sw.c **** #ifndef CYINT_IRQ_BASE
  35:Generated_Source\PSoC5/ISR_Sw.c **** #define CYINT_IRQ_BASE      16
  36:Generated_Source\PSoC5/ISR_Sw.c **** #endif /* CYINT_IRQ_BASE */
  37:Generated_Source\PSoC5/ISR_Sw.c **** #ifndef CYINT_VECT_TABLE
  38:Generated_Source\PSoC5/ISR_Sw.c **** #define CYINT_VECT_TABLE    ((cyisraddress **) CYREG_NVIC_VECT_OFFSET)
  39:Generated_Source\PSoC5/ISR_Sw.c **** #endif /* CYINT_VECT_TABLE */
  40:Generated_Source\PSoC5/ISR_Sw.c **** 
  41:Generated_Source\PSoC5/ISR_Sw.c **** /* Declared in startup, used to set unused interrupts to. */
  42:Generated_Source\PSoC5/ISR_Sw.c **** CY_ISR_PROTO(IntDefaultHandler);
  43:Generated_Source\PSoC5/ISR_Sw.c **** 
  44:Generated_Source\PSoC5/ISR_Sw.c **** 
  45:Generated_Source\PSoC5/ISR_Sw.c **** /*******************************************************************************
  46:Generated_Source\PSoC5/ISR_Sw.c **** * Function Name: ISR_Sw_Start
  47:Generated_Source\PSoC5/ISR_Sw.c **** ********************************************************************************
  48:Generated_Source\PSoC5/ISR_Sw.c **** *
  49:Generated_Source\PSoC5/ISR_Sw.c **** * Summary:
  50:Generated_Source\PSoC5/ISR_Sw.c **** *  Set up the interrupt and enable it. This function disables the interrupt, 
  51:Generated_Source\PSoC5/ISR_Sw.c **** *  sets the default interrupt vector, sets the priority from the value in the
  52:Generated_Source\PSoC5/ISR_Sw.c **** *  Design Wide Resources Interrupt Editor, then enables the interrupt to the 
  53:Generated_Source\PSoC5/ISR_Sw.c **** *  interrupt controller.
  54:Generated_Source\PSoC5/ISR_Sw.c **** *
  55:Generated_Source\PSoC5/ISR_Sw.c **** * Parameters:  
  56:Generated_Source\PSoC5/ISR_Sw.c **** *   None
  57:Generated_Source\PSoC5/ISR_Sw.c **** *
  58:Generated_Source\PSoC5/ISR_Sw.c **** * Return:
  59:Generated_Source\PSoC5/ISR_Sw.c **** *   None
  60:Generated_Source\PSoC5/ISR_Sw.c **** *
  61:Generated_Source\PSoC5/ISR_Sw.c **** *******************************************************************************/
  62:Generated_Source\PSoC5/ISR_Sw.c **** void ISR_Sw_Start(void)
  63:Generated_Source\PSoC5/ISR_Sw.c **** {
  28              		.loc 1 63 0
  29              		.cfi_startproc
  30              		@ args = 0, pretend = 0, frame = 0
  31              		@ frame_needed = 1, uses_anonymous_args = 0
  32 0000 80B5     		push	{r7, lr}
  33              		.cfi_def_cfa_offset 8
  34              		.cfi_offset 7, -8
  35              		.cfi_offset 14, -4
  36 0002 00AF     		add	r7, sp, #0
  37              		.cfi_def_cfa_register 7
  64:Generated_Source\PSoC5/ISR_Sw.c ****     /* For all we know the interrupt is active. */
  65:Generated_Source\PSoC5/ISR_Sw.c ****     ISR_Sw_Disable();
  38              		.loc 1 65 0
  39 0004 FFF7FEFF 		bl	ISR_Sw_Disable
  66:Generated_Source\PSoC5/ISR_Sw.c **** 
  67:Generated_Source\PSoC5/ISR_Sw.c ****     /* Set the ISR to point to the ISR_Sw Interrupt. */
  68:Generated_Source\PSoC5/ISR_Sw.c ****     ISR_Sw_SetVector(&ISR_Sw_Interrupt);
  40              		.loc 1 68 0
  41 0008 0448     		ldr	r0, .L2
  42 000a FFF7FEFF 		bl	ISR_Sw_SetVector
  69:Generated_Source\PSoC5/ISR_Sw.c **** 
  70:Generated_Source\PSoC5/ISR_Sw.c ****     /* Set the priority. */
  71:Generated_Source\PSoC5/ISR_Sw.c ****     ISR_Sw_SetPriority((uint8)ISR_Sw_INTC_PRIOR_NUMBER);
  43              		.loc 1 71 0
ARM GAS  C:\Users\almsk\AppData\Local\Temp\ccyMdYdm.s 			page 3


  44 000e 0720     		movs	r0, #7
  45 0010 FFF7FEFF 		bl	ISR_Sw_SetPriority
  72:Generated_Source\PSoC5/ISR_Sw.c **** 
  73:Generated_Source\PSoC5/ISR_Sw.c ****     /* Enable it. */
  74:Generated_Source\PSoC5/ISR_Sw.c ****     ISR_Sw_Enable();
  46              		.loc 1 74 0
  47 0014 FFF7FEFF 		bl	ISR_Sw_Enable
  75:Generated_Source\PSoC5/ISR_Sw.c **** }
  48              		.loc 1 75 0
  49 0018 00BF     		nop
  50 001a 80BD     		pop	{r7, pc}
  51              	.L3:
  52              		.align	2
  53              	.L2:
  54 001c 00000000 		.word	ISR_Sw_Interrupt
  55              		.cfi_endproc
  56              	.LFE0:
  57              		.size	ISR_Sw_Start, .-ISR_Sw_Start
  58              		.section	.text.ISR_Sw_StartEx,"ax",%progbits
  59              		.align	2
  60              		.global	ISR_Sw_StartEx
  61              		.thumb
  62              		.thumb_func
  63              		.type	ISR_Sw_StartEx, %function
  64              	ISR_Sw_StartEx:
  65              	.LFB1:
  76:Generated_Source\PSoC5/ISR_Sw.c **** 
  77:Generated_Source\PSoC5/ISR_Sw.c **** 
  78:Generated_Source\PSoC5/ISR_Sw.c **** /*******************************************************************************
  79:Generated_Source\PSoC5/ISR_Sw.c **** * Function Name: ISR_Sw_StartEx
  80:Generated_Source\PSoC5/ISR_Sw.c **** ********************************************************************************
  81:Generated_Source\PSoC5/ISR_Sw.c **** *
  82:Generated_Source\PSoC5/ISR_Sw.c **** * Summary:
  83:Generated_Source\PSoC5/ISR_Sw.c **** *  Sets up the interrupt and enables it. This function disables the interrupt,
  84:Generated_Source\PSoC5/ISR_Sw.c **** *  sets the interrupt vector based on the address passed in, sets the priority 
  85:Generated_Source\PSoC5/ISR_Sw.c **** *  from the value in the Design Wide Resources Interrupt Editor, then enables 
  86:Generated_Source\PSoC5/ISR_Sw.c **** *  the interrupt to the interrupt controller.
  87:Generated_Source\PSoC5/ISR_Sw.c **** *  
  88:Generated_Source\PSoC5/ISR_Sw.c **** *  When defining ISR functions, the CY_ISR and CY_ISR_PROTO macros should be 
  89:Generated_Source\PSoC5/ISR_Sw.c **** *  used to provide consistent definition across compilers:
  90:Generated_Source\PSoC5/ISR_Sw.c **** *  
  91:Generated_Source\PSoC5/ISR_Sw.c **** *  Function definition example:
  92:Generated_Source\PSoC5/ISR_Sw.c **** *   CY_ISR(MyISR)
  93:Generated_Source\PSoC5/ISR_Sw.c **** *   {
  94:Generated_Source\PSoC5/ISR_Sw.c **** *   }
  95:Generated_Source\PSoC5/ISR_Sw.c **** *   Function prototype example:
  96:Generated_Source\PSoC5/ISR_Sw.c **** *   CY_ISR_PROTO(MyISR);
  97:Generated_Source\PSoC5/ISR_Sw.c **** *
  98:Generated_Source\PSoC5/ISR_Sw.c **** * Parameters:  
  99:Generated_Source\PSoC5/ISR_Sw.c **** *   address: Address of the ISR to set in the interrupt vector table.
 100:Generated_Source\PSoC5/ISR_Sw.c **** *
 101:Generated_Source\PSoC5/ISR_Sw.c **** * Return:
 102:Generated_Source\PSoC5/ISR_Sw.c **** *   None
 103:Generated_Source\PSoC5/ISR_Sw.c **** *
 104:Generated_Source\PSoC5/ISR_Sw.c **** *******************************************************************************/
 105:Generated_Source\PSoC5/ISR_Sw.c **** void ISR_Sw_StartEx(cyisraddress address)
 106:Generated_Source\PSoC5/ISR_Sw.c **** {
ARM GAS  C:\Users\almsk\AppData\Local\Temp\ccyMdYdm.s 			page 4


  66              		.loc 1 106 0
  67              		.cfi_startproc
  68              		@ args = 0, pretend = 0, frame = 8
  69              		@ frame_needed = 1, uses_anonymous_args = 0
  70 0000 80B5     		push	{r7, lr}
  71              		.cfi_def_cfa_offset 8
  72              		.cfi_offset 7, -8
  73              		.cfi_offset 14, -4
  74 0002 82B0     		sub	sp, sp, #8
  75              		.cfi_def_cfa_offset 16
  76 0004 00AF     		add	r7, sp, #0
  77              		.cfi_def_cfa_register 7
  78 0006 7860     		str	r0, [r7, #4]
 107:Generated_Source\PSoC5/ISR_Sw.c ****     /* For all we know the interrupt is active. */
 108:Generated_Source\PSoC5/ISR_Sw.c ****     ISR_Sw_Disable();
  79              		.loc 1 108 0
  80 0008 FFF7FEFF 		bl	ISR_Sw_Disable
 109:Generated_Source\PSoC5/ISR_Sw.c **** 
 110:Generated_Source\PSoC5/ISR_Sw.c ****     /* Set the ISR to point to the ISR_Sw Interrupt. */
 111:Generated_Source\PSoC5/ISR_Sw.c ****     ISR_Sw_SetVector(address);
  81              		.loc 1 111 0
  82 000c 7868     		ldr	r0, [r7, #4]
  83 000e FFF7FEFF 		bl	ISR_Sw_SetVector
 112:Generated_Source\PSoC5/ISR_Sw.c **** 
 113:Generated_Source\PSoC5/ISR_Sw.c ****     /* Set the priority. */
 114:Generated_Source\PSoC5/ISR_Sw.c ****     ISR_Sw_SetPriority((uint8)ISR_Sw_INTC_PRIOR_NUMBER);
  84              		.loc 1 114 0
  85 0012 0720     		movs	r0, #7
  86 0014 FFF7FEFF 		bl	ISR_Sw_SetPriority
 115:Generated_Source\PSoC5/ISR_Sw.c **** 
 116:Generated_Source\PSoC5/ISR_Sw.c ****     /* Enable it. */
 117:Generated_Source\PSoC5/ISR_Sw.c ****     ISR_Sw_Enable();
  87              		.loc 1 117 0
  88 0018 FFF7FEFF 		bl	ISR_Sw_Enable
 118:Generated_Source\PSoC5/ISR_Sw.c **** }
  89              		.loc 1 118 0
  90 001c 00BF     		nop
  91 001e 0837     		adds	r7, r7, #8
  92              		.cfi_def_cfa_offset 8
  93 0020 BD46     		mov	sp, r7
  94              		.cfi_def_cfa_register 13
  95              		@ sp needed
  96 0022 80BD     		pop	{r7, pc}
  97              		.cfi_endproc
  98              	.LFE1:
  99              		.size	ISR_Sw_StartEx, .-ISR_Sw_StartEx
 100              		.section	.text.ISR_Sw_Stop,"ax",%progbits
 101              		.align	2
 102              		.global	ISR_Sw_Stop
 103              		.thumb
 104              		.thumb_func
 105              		.type	ISR_Sw_Stop, %function
 106              	ISR_Sw_Stop:
 107              	.LFB2:
 119:Generated_Source\PSoC5/ISR_Sw.c **** 
 120:Generated_Source\PSoC5/ISR_Sw.c **** 
 121:Generated_Source\PSoC5/ISR_Sw.c **** /*******************************************************************************
ARM GAS  C:\Users\almsk\AppData\Local\Temp\ccyMdYdm.s 			page 5


 122:Generated_Source\PSoC5/ISR_Sw.c **** * Function Name: ISR_Sw_Stop
 123:Generated_Source\PSoC5/ISR_Sw.c **** ********************************************************************************
 124:Generated_Source\PSoC5/ISR_Sw.c **** *
 125:Generated_Source\PSoC5/ISR_Sw.c **** * Summary:
 126:Generated_Source\PSoC5/ISR_Sw.c **** *   Disables and removes the interrupt.
 127:Generated_Source\PSoC5/ISR_Sw.c **** *
 128:Generated_Source\PSoC5/ISR_Sw.c **** * Parameters:  
 129:Generated_Source\PSoC5/ISR_Sw.c **** *   None
 130:Generated_Source\PSoC5/ISR_Sw.c **** *
 131:Generated_Source\PSoC5/ISR_Sw.c **** * Return:
 132:Generated_Source\PSoC5/ISR_Sw.c **** *   None
 133:Generated_Source\PSoC5/ISR_Sw.c **** *
 134:Generated_Source\PSoC5/ISR_Sw.c **** *******************************************************************************/
 135:Generated_Source\PSoC5/ISR_Sw.c **** void ISR_Sw_Stop(void)
 136:Generated_Source\PSoC5/ISR_Sw.c **** {
 108              		.loc 1 136 0
 109              		.cfi_startproc
 110              		@ args = 0, pretend = 0, frame = 0
 111              		@ frame_needed = 1, uses_anonymous_args = 0
 112 0000 80B5     		push	{r7, lr}
 113              		.cfi_def_cfa_offset 8
 114              		.cfi_offset 7, -8
 115              		.cfi_offset 14, -4
 116 0002 00AF     		add	r7, sp, #0
 117              		.cfi_def_cfa_register 7
 137:Generated_Source\PSoC5/ISR_Sw.c ****     /* Disable this interrupt. */
 138:Generated_Source\PSoC5/ISR_Sw.c ****     ISR_Sw_Disable();
 118              		.loc 1 138 0
 119 0004 FFF7FEFF 		bl	ISR_Sw_Disable
 139:Generated_Source\PSoC5/ISR_Sw.c **** 
 140:Generated_Source\PSoC5/ISR_Sw.c ****     /* Set the ISR to point to the passive one. */
 141:Generated_Source\PSoC5/ISR_Sw.c ****     ISR_Sw_SetVector(&IntDefaultHandler);
 120              		.loc 1 141 0
 121 0008 0248     		ldr	r0, .L6
 122 000a FFF7FEFF 		bl	ISR_Sw_SetVector
 142:Generated_Source\PSoC5/ISR_Sw.c **** }
 123              		.loc 1 142 0
 124 000e 00BF     		nop
 125 0010 80BD     		pop	{r7, pc}
 126              	.L7:
 127 0012 00BF     		.align	2
 128              	.L6:
 129 0014 00000000 		.word	IntDefaultHandler
 130              		.cfi_endproc
 131              	.LFE2:
 132              		.size	ISR_Sw_Stop, .-ISR_Sw_Stop
 133              		.section	.text.ISR_Sw_Interrupt,"ax",%progbits
 134              		.align	2
 135              		.global	ISR_Sw_Interrupt
 136              		.thumb
 137              		.thumb_func
 138              		.type	ISR_Sw_Interrupt, %function
 139              	ISR_Sw_Interrupt:
 140              	.LFB3:
 143:Generated_Source\PSoC5/ISR_Sw.c **** 
 144:Generated_Source\PSoC5/ISR_Sw.c **** 
 145:Generated_Source\PSoC5/ISR_Sw.c **** /*******************************************************************************
ARM GAS  C:\Users\almsk\AppData\Local\Temp\ccyMdYdm.s 			page 6


 146:Generated_Source\PSoC5/ISR_Sw.c **** * Function Name: ISR_Sw_Interrupt
 147:Generated_Source\PSoC5/ISR_Sw.c **** ********************************************************************************
 148:Generated_Source\PSoC5/ISR_Sw.c **** *
 149:Generated_Source\PSoC5/ISR_Sw.c **** * Summary:
 150:Generated_Source\PSoC5/ISR_Sw.c **** *   The default Interrupt Service Routine for ISR_Sw.
 151:Generated_Source\PSoC5/ISR_Sw.c **** *
 152:Generated_Source\PSoC5/ISR_Sw.c **** *   Add custom code between the coments to keep the next version of this file
 153:Generated_Source\PSoC5/ISR_Sw.c **** *   from over writting your code.
 154:Generated_Source\PSoC5/ISR_Sw.c **** *
 155:Generated_Source\PSoC5/ISR_Sw.c **** * Parameters:  
 156:Generated_Source\PSoC5/ISR_Sw.c **** *
 157:Generated_Source\PSoC5/ISR_Sw.c **** * Return:
 158:Generated_Source\PSoC5/ISR_Sw.c **** *   None
 159:Generated_Source\PSoC5/ISR_Sw.c **** *
 160:Generated_Source\PSoC5/ISR_Sw.c **** *******************************************************************************/
 161:Generated_Source\PSoC5/ISR_Sw.c **** CY_ISR(ISR_Sw_Interrupt)
 162:Generated_Source\PSoC5/ISR_Sw.c **** {
 141              		.loc 1 162 0
 142              		.cfi_startproc
 143              		@ args = 0, pretend = 0, frame = 0
 144              		@ frame_needed = 1, uses_anonymous_args = 0
 145 0000 80B5     		push	{r7, lr}
 146              		.cfi_def_cfa_offset 8
 147              		.cfi_offset 7, -8
 148              		.cfi_offset 14, -4
 149 0002 00AF     		add	r7, sp, #0
 150              		.cfi_def_cfa_register 7
 163:Generated_Source\PSoC5/ISR_Sw.c ****     #ifdef ISR_Sw_INTERRUPT_INTERRUPT_CALLBACK
 164:Generated_Source\PSoC5/ISR_Sw.c ****         ISR_Sw_Interrupt_InterruptCallback();
 165:Generated_Source\PSoC5/ISR_Sw.c ****     #endif /* ISR_Sw_INTERRUPT_INTERRUPT_CALLBACK */ 
 166:Generated_Source\PSoC5/ISR_Sw.c **** 
 167:Generated_Source\PSoC5/ISR_Sw.c ****     /*  Place your Interrupt code here. */
 168:Generated_Source\PSoC5/ISR_Sw.c ****     /* `#START ISR_Sw_Interrupt` */
 169:Generated_Source\PSoC5/ISR_Sw.c ****     switch_flag = 1;
 151              		.loc 1 169 0
 152 0004 034B     		ldr	r3, .L9
 153 0006 0122     		movs	r2, #1
 154 0008 1A70     		strb	r2, [r3]
 170:Generated_Source\PSoC5/ISR_Sw.c ****     PIN_SWITCH_ClearInterrupt();
 155              		.loc 1 170 0
 156 000a FFF7FEFF 		bl	PIN_SWITCH_ClearInterrupt
 171:Generated_Source\PSoC5/ISR_Sw.c ****     /* `#END` */
 172:Generated_Source\PSoC5/ISR_Sw.c **** }
 157              		.loc 1 172 0
 158 000e 00BF     		nop
 159 0010 80BD     		pop	{r7, pc}
 160              	.L10:
 161 0012 00BF     		.align	2
 162              	.L9:
 163 0014 00000000 		.word	switch_flag
 164              		.cfi_endproc
 165              	.LFE3:
 166              		.size	ISR_Sw_Interrupt, .-ISR_Sw_Interrupt
 167              		.section	.text.ISR_Sw_SetVector,"ax",%progbits
 168              		.align	2
 169              		.global	ISR_Sw_SetVector
 170              		.thumb
ARM GAS  C:\Users\almsk\AppData\Local\Temp\ccyMdYdm.s 			page 7


 171              		.thumb_func
 172              		.type	ISR_Sw_SetVector, %function
 173              	ISR_Sw_SetVector:
 174              	.LFB4:
 173:Generated_Source\PSoC5/ISR_Sw.c **** 
 174:Generated_Source\PSoC5/ISR_Sw.c **** 
 175:Generated_Source\PSoC5/ISR_Sw.c **** /*******************************************************************************
 176:Generated_Source\PSoC5/ISR_Sw.c **** * Function Name: ISR_Sw_SetVector
 177:Generated_Source\PSoC5/ISR_Sw.c **** ********************************************************************************
 178:Generated_Source\PSoC5/ISR_Sw.c **** *
 179:Generated_Source\PSoC5/ISR_Sw.c **** * Summary:
 180:Generated_Source\PSoC5/ISR_Sw.c **** *   Change the ISR vector for the Interrupt. Note calling ISR_Sw_Start
 181:Generated_Source\PSoC5/ISR_Sw.c **** *   will override any effect this method would have had. To set the vector 
 182:Generated_Source\PSoC5/ISR_Sw.c **** *   before the component has been started use ISR_Sw_StartEx instead.
 183:Generated_Source\PSoC5/ISR_Sw.c **** * 
 184:Generated_Source\PSoC5/ISR_Sw.c **** *   When defining ISR functions, the CY_ISR and CY_ISR_PROTO macros should be 
 185:Generated_Source\PSoC5/ISR_Sw.c **** *   used to provide consistent definition across compilers:
 186:Generated_Source\PSoC5/ISR_Sw.c **** *
 187:Generated_Source\PSoC5/ISR_Sw.c **** *   Function definition example:
 188:Generated_Source\PSoC5/ISR_Sw.c **** *   CY_ISR(MyISR)
 189:Generated_Source\PSoC5/ISR_Sw.c **** *   {
 190:Generated_Source\PSoC5/ISR_Sw.c **** *   }
 191:Generated_Source\PSoC5/ISR_Sw.c **** *
 192:Generated_Source\PSoC5/ISR_Sw.c **** *   Function prototype example:
 193:Generated_Source\PSoC5/ISR_Sw.c **** *     CY_ISR_PROTO(MyISR);
 194:Generated_Source\PSoC5/ISR_Sw.c **** *
 195:Generated_Source\PSoC5/ISR_Sw.c **** * Parameters:
 196:Generated_Source\PSoC5/ISR_Sw.c **** *   address: Address of the ISR to set in the interrupt vector table.
 197:Generated_Source\PSoC5/ISR_Sw.c **** *
 198:Generated_Source\PSoC5/ISR_Sw.c **** * Return:
 199:Generated_Source\PSoC5/ISR_Sw.c **** *   None
 200:Generated_Source\PSoC5/ISR_Sw.c **** *
 201:Generated_Source\PSoC5/ISR_Sw.c **** *******************************************************************************/
 202:Generated_Source\PSoC5/ISR_Sw.c **** void ISR_Sw_SetVector(cyisraddress address)
 203:Generated_Source\PSoC5/ISR_Sw.c **** {
 175              		.loc 1 203 0
 176              		.cfi_startproc
 177              		@ args = 0, pretend = 0, frame = 16
 178              		@ frame_needed = 1, uses_anonymous_args = 0
 179              		@ link register save eliminated.
 180 0000 80B4     		push	{r7}
 181              		.cfi_def_cfa_offset 4
 182              		.cfi_offset 7, -4
 183 0002 85B0     		sub	sp, sp, #20
 184              		.cfi_def_cfa_offset 24
 185 0004 00AF     		add	r7, sp, #0
 186              		.cfi_def_cfa_register 7
 187 0006 7860     		str	r0, [r7, #4]
 204:Generated_Source\PSoC5/ISR_Sw.c ****     cyisraddress * ramVectorTable;
 205:Generated_Source\PSoC5/ISR_Sw.c **** 
 206:Generated_Source\PSoC5/ISR_Sw.c ****     ramVectorTable = (cyisraddress *) *CYINT_VECT_TABLE;
 188              		.loc 1 206 0
 189 0008 054B     		ldr	r3, .L12
 190 000a 1B68     		ldr	r3, [r3]
 191 000c FB60     		str	r3, [r7, #12]
 207:Generated_Source\PSoC5/ISR_Sw.c **** 
 208:Generated_Source\PSoC5/ISR_Sw.c ****     ramVectorTable[CYINT_IRQ_BASE + (uint32)ISR_Sw__INTC_NUMBER] = address;
ARM GAS  C:\Users\almsk\AppData\Local\Temp\ccyMdYdm.s 			page 8


 192              		.loc 1 208 0
 193 000e FB68     		ldr	r3, [r7, #12]
 194 0010 5833     		adds	r3, r3, #88
 195 0012 7A68     		ldr	r2, [r7, #4]
 196 0014 1A60     		str	r2, [r3]
 209:Generated_Source\PSoC5/ISR_Sw.c **** }
 197              		.loc 1 209 0
 198 0016 00BF     		nop
 199 0018 1437     		adds	r7, r7, #20
 200              		.cfi_def_cfa_offset 4
 201 001a BD46     		mov	sp, r7
 202              		.cfi_def_cfa_register 13
 203              		@ sp needed
 204 001c 80BC     		pop	{r7}
 205              		.cfi_restore 7
 206              		.cfi_def_cfa_offset 0
 207 001e 7047     		bx	lr
 208              	.L13:
 209              		.align	2
 210              	.L12:
 211 0020 08ED00E0 		.word	-536810232
 212              		.cfi_endproc
 213              	.LFE4:
 214              		.size	ISR_Sw_SetVector, .-ISR_Sw_SetVector
 215              		.section	.text.ISR_Sw_GetVector,"ax",%progbits
 216              		.align	2
 217              		.global	ISR_Sw_GetVector
 218              		.thumb
 219              		.thumb_func
 220              		.type	ISR_Sw_GetVector, %function
 221              	ISR_Sw_GetVector:
 222              	.LFB5:
 210:Generated_Source\PSoC5/ISR_Sw.c **** 
 211:Generated_Source\PSoC5/ISR_Sw.c **** 
 212:Generated_Source\PSoC5/ISR_Sw.c **** /*******************************************************************************
 213:Generated_Source\PSoC5/ISR_Sw.c **** * Function Name: ISR_Sw_GetVector
 214:Generated_Source\PSoC5/ISR_Sw.c **** ********************************************************************************
 215:Generated_Source\PSoC5/ISR_Sw.c **** *
 216:Generated_Source\PSoC5/ISR_Sw.c **** * Summary:
 217:Generated_Source\PSoC5/ISR_Sw.c **** *   Gets the "address" of the current ISR vector for the Interrupt.
 218:Generated_Source\PSoC5/ISR_Sw.c **** *
 219:Generated_Source\PSoC5/ISR_Sw.c **** * Parameters:
 220:Generated_Source\PSoC5/ISR_Sw.c **** *   None
 221:Generated_Source\PSoC5/ISR_Sw.c **** *
 222:Generated_Source\PSoC5/ISR_Sw.c **** * Return:
 223:Generated_Source\PSoC5/ISR_Sw.c **** *   Address of the ISR in the interrupt vector table.
 224:Generated_Source\PSoC5/ISR_Sw.c **** *
 225:Generated_Source\PSoC5/ISR_Sw.c **** *******************************************************************************/
 226:Generated_Source\PSoC5/ISR_Sw.c **** cyisraddress ISR_Sw_GetVector(void)
 227:Generated_Source\PSoC5/ISR_Sw.c **** {
 223              		.loc 1 227 0
 224              		.cfi_startproc
 225              		@ args = 0, pretend = 0, frame = 8
 226              		@ frame_needed = 1, uses_anonymous_args = 0
 227              		@ link register save eliminated.
 228 0000 80B4     		push	{r7}
 229              		.cfi_def_cfa_offset 4
ARM GAS  C:\Users\almsk\AppData\Local\Temp\ccyMdYdm.s 			page 9


 230              		.cfi_offset 7, -4
 231 0002 83B0     		sub	sp, sp, #12
 232              		.cfi_def_cfa_offset 16
 233 0004 00AF     		add	r7, sp, #0
 234              		.cfi_def_cfa_register 7
 228:Generated_Source\PSoC5/ISR_Sw.c ****     cyisraddress * ramVectorTable;
 229:Generated_Source\PSoC5/ISR_Sw.c **** 
 230:Generated_Source\PSoC5/ISR_Sw.c ****     ramVectorTable = (cyisraddress *) *CYINT_VECT_TABLE;
 235              		.loc 1 230 0
 236 0006 054B     		ldr	r3, .L16
 237 0008 1B68     		ldr	r3, [r3]
 238 000a 7B60     		str	r3, [r7, #4]
 231:Generated_Source\PSoC5/ISR_Sw.c **** 
 232:Generated_Source\PSoC5/ISR_Sw.c ****     return ramVectorTable[CYINT_IRQ_BASE + (uint32)ISR_Sw__INTC_NUMBER];
 239              		.loc 1 232 0
 240 000c 7B68     		ldr	r3, [r7, #4]
 241 000e 9B6D     		ldr	r3, [r3, #88]
 233:Generated_Source\PSoC5/ISR_Sw.c **** }
 242              		.loc 1 233 0
 243 0010 1846     		mov	r0, r3
 244 0012 0C37     		adds	r7, r7, #12
 245              		.cfi_def_cfa_offset 4
 246 0014 BD46     		mov	sp, r7
 247              		.cfi_def_cfa_register 13
 248              		@ sp needed
 249 0016 80BC     		pop	{r7}
 250              		.cfi_restore 7
 251              		.cfi_def_cfa_offset 0
 252 0018 7047     		bx	lr
 253              	.L17:
 254 001a 00BF     		.align	2
 255              	.L16:
 256 001c 08ED00E0 		.word	-536810232
 257              		.cfi_endproc
 258              	.LFE5:
 259              		.size	ISR_Sw_GetVector, .-ISR_Sw_GetVector
 260              		.section	.text.ISR_Sw_SetPriority,"ax",%progbits
 261              		.align	2
 262              		.global	ISR_Sw_SetPriority
 263              		.thumb
 264              		.thumb_func
 265              		.type	ISR_Sw_SetPriority, %function
 266              	ISR_Sw_SetPriority:
 267              	.LFB6:
 234:Generated_Source\PSoC5/ISR_Sw.c **** 
 235:Generated_Source\PSoC5/ISR_Sw.c **** 
 236:Generated_Source\PSoC5/ISR_Sw.c **** /*******************************************************************************
 237:Generated_Source\PSoC5/ISR_Sw.c **** * Function Name: ISR_Sw_SetPriority
 238:Generated_Source\PSoC5/ISR_Sw.c **** ********************************************************************************
 239:Generated_Source\PSoC5/ISR_Sw.c **** *
 240:Generated_Source\PSoC5/ISR_Sw.c **** * Summary:
 241:Generated_Source\PSoC5/ISR_Sw.c **** *   Sets the Priority of the Interrupt. 
 242:Generated_Source\PSoC5/ISR_Sw.c **** *
 243:Generated_Source\PSoC5/ISR_Sw.c **** *   Note calling ISR_Sw_Start or ISR_Sw_StartEx will 
 244:Generated_Source\PSoC5/ISR_Sw.c **** *   override any effect this API would have had. This API should only be called
 245:Generated_Source\PSoC5/ISR_Sw.c **** *   after ISR_Sw_Start or ISR_Sw_StartEx has been called. 
 246:Generated_Source\PSoC5/ISR_Sw.c **** *   To set the initial priority for the component, use the Design-Wide Resources
ARM GAS  C:\Users\almsk\AppData\Local\Temp\ccyMdYdm.s 			page 10


 247:Generated_Source\PSoC5/ISR_Sw.c **** *   Interrupt Editor.
 248:Generated_Source\PSoC5/ISR_Sw.c **** *
 249:Generated_Source\PSoC5/ISR_Sw.c **** *   Note This API has no effect on Non-maskable interrupt NMI).
 250:Generated_Source\PSoC5/ISR_Sw.c **** *
 251:Generated_Source\PSoC5/ISR_Sw.c **** * Parameters:
 252:Generated_Source\PSoC5/ISR_Sw.c **** *   priority: Priority of the interrupt, 0 being the highest priority
 253:Generated_Source\PSoC5/ISR_Sw.c **** *             PSoC 3 and PSoC 5LP: Priority is from 0 to 7.
 254:Generated_Source\PSoC5/ISR_Sw.c **** *             PSoC 4: Priority is from 0 to 3.
 255:Generated_Source\PSoC5/ISR_Sw.c **** *
 256:Generated_Source\PSoC5/ISR_Sw.c **** * Return:
 257:Generated_Source\PSoC5/ISR_Sw.c **** *   None
 258:Generated_Source\PSoC5/ISR_Sw.c **** *
 259:Generated_Source\PSoC5/ISR_Sw.c **** *******************************************************************************/
 260:Generated_Source\PSoC5/ISR_Sw.c **** void ISR_Sw_SetPriority(uint8 priority)
 261:Generated_Source\PSoC5/ISR_Sw.c **** {
 268              		.loc 1 261 0
 269              		.cfi_startproc
 270              		@ args = 0, pretend = 0, frame = 8
 271              		@ frame_needed = 1, uses_anonymous_args = 0
 272              		@ link register save eliminated.
 273 0000 80B4     		push	{r7}
 274              		.cfi_def_cfa_offset 4
 275              		.cfi_offset 7, -4
 276 0002 83B0     		sub	sp, sp, #12
 277              		.cfi_def_cfa_offset 16
 278 0004 00AF     		add	r7, sp, #0
 279              		.cfi_def_cfa_register 7
 280 0006 0346     		mov	r3, r0
 281 0008 FB71     		strb	r3, [r7, #7]
 262:Generated_Source\PSoC5/ISR_Sw.c ****     *ISR_Sw_INTC_PRIOR = priority << 5;
 282              		.loc 1 262 0
 283 000a 054A     		ldr	r2, .L19
 284 000c FB79     		ldrb	r3, [r7, #7]
 285 000e 5B01     		lsls	r3, r3, #5
 286 0010 DBB2     		uxtb	r3, r3
 287 0012 1370     		strb	r3, [r2]
 263:Generated_Source\PSoC5/ISR_Sw.c **** }
 288              		.loc 1 263 0
 289 0014 00BF     		nop
 290 0016 0C37     		adds	r7, r7, #12
 291              		.cfi_def_cfa_offset 4
 292 0018 BD46     		mov	sp, r7
 293              		.cfi_def_cfa_register 13
 294              		@ sp needed
 295 001a 80BC     		pop	{r7}
 296              		.cfi_restore 7
 297              		.cfi_def_cfa_offset 0
 298 001c 7047     		bx	lr
 299              	.L20:
 300 001e 00BF     		.align	2
 301              	.L19:
 302 0020 06E400E0 		.word	-536812538
 303              		.cfi_endproc
 304              	.LFE6:
 305              		.size	ISR_Sw_SetPriority, .-ISR_Sw_SetPriority
 306              		.section	.text.ISR_Sw_GetPriority,"ax",%progbits
 307              		.align	2
ARM GAS  C:\Users\almsk\AppData\Local\Temp\ccyMdYdm.s 			page 11


 308              		.global	ISR_Sw_GetPriority
 309              		.thumb
 310              		.thumb_func
 311              		.type	ISR_Sw_GetPriority, %function
 312              	ISR_Sw_GetPriority:
 313              	.LFB7:
 264:Generated_Source\PSoC5/ISR_Sw.c **** 
 265:Generated_Source\PSoC5/ISR_Sw.c **** 
 266:Generated_Source\PSoC5/ISR_Sw.c **** /*******************************************************************************
 267:Generated_Source\PSoC5/ISR_Sw.c **** * Function Name: ISR_Sw_GetPriority
 268:Generated_Source\PSoC5/ISR_Sw.c **** ********************************************************************************
 269:Generated_Source\PSoC5/ISR_Sw.c **** *
 270:Generated_Source\PSoC5/ISR_Sw.c **** * Summary:
 271:Generated_Source\PSoC5/ISR_Sw.c **** *   Gets the Priority of the Interrupt.
 272:Generated_Source\PSoC5/ISR_Sw.c **** *
 273:Generated_Source\PSoC5/ISR_Sw.c **** * Parameters:
 274:Generated_Source\PSoC5/ISR_Sw.c **** *   None
 275:Generated_Source\PSoC5/ISR_Sw.c **** *
 276:Generated_Source\PSoC5/ISR_Sw.c **** * Return:
 277:Generated_Source\PSoC5/ISR_Sw.c **** *   Priority of the interrupt, 0 being the highest priority
 278:Generated_Source\PSoC5/ISR_Sw.c **** *    PSoC 3 and PSoC 5LP: Priority is from 0 to 7.
 279:Generated_Source\PSoC5/ISR_Sw.c **** *    PSoC 4: Priority is from 0 to 3.
 280:Generated_Source\PSoC5/ISR_Sw.c **** *
 281:Generated_Source\PSoC5/ISR_Sw.c **** *******************************************************************************/
 282:Generated_Source\PSoC5/ISR_Sw.c **** uint8 ISR_Sw_GetPriority(void)
 283:Generated_Source\PSoC5/ISR_Sw.c **** {
 314              		.loc 1 283 0
 315              		.cfi_startproc
 316              		@ args = 0, pretend = 0, frame = 8
 317              		@ frame_needed = 1, uses_anonymous_args = 0
 318              		@ link register save eliminated.
 319 0000 80B4     		push	{r7}
 320              		.cfi_def_cfa_offset 4
 321              		.cfi_offset 7, -4
 322 0002 83B0     		sub	sp, sp, #12
 323              		.cfi_def_cfa_offset 16
 324 0004 00AF     		add	r7, sp, #0
 325              		.cfi_def_cfa_register 7
 284:Generated_Source\PSoC5/ISR_Sw.c ****     uint8 priority;
 285:Generated_Source\PSoC5/ISR_Sw.c **** 
 286:Generated_Source\PSoC5/ISR_Sw.c **** 
 287:Generated_Source\PSoC5/ISR_Sw.c ****     priority = *ISR_Sw_INTC_PRIOR >> 5;
 326              		.loc 1 287 0
 327 0006 054B     		ldr	r3, .L23
 328 0008 1B78     		ldrb	r3, [r3]
 329 000a DBB2     		uxtb	r3, r3
 330 000c 5B09     		lsrs	r3, r3, #5
 331 000e FB71     		strb	r3, [r7, #7]
 288:Generated_Source\PSoC5/ISR_Sw.c **** 
 289:Generated_Source\PSoC5/ISR_Sw.c ****     return priority;
 332              		.loc 1 289 0
 333 0010 FB79     		ldrb	r3, [r7, #7]	@ zero_extendqisi2
 290:Generated_Source\PSoC5/ISR_Sw.c **** }
 334              		.loc 1 290 0
 335 0012 1846     		mov	r0, r3
 336 0014 0C37     		adds	r7, r7, #12
 337              		.cfi_def_cfa_offset 4
ARM GAS  C:\Users\almsk\AppData\Local\Temp\ccyMdYdm.s 			page 12


 338 0016 BD46     		mov	sp, r7
 339              		.cfi_def_cfa_register 13
 340              		@ sp needed
 341 0018 80BC     		pop	{r7}
 342              		.cfi_restore 7
 343              		.cfi_def_cfa_offset 0
 344 001a 7047     		bx	lr
 345              	.L24:
 346              		.align	2
 347              	.L23:
 348 001c 06E400E0 		.word	-536812538
 349              		.cfi_endproc
 350              	.LFE7:
 351              		.size	ISR_Sw_GetPriority, .-ISR_Sw_GetPriority
 352              		.section	.text.ISR_Sw_Enable,"ax",%progbits
 353              		.align	2
 354              		.global	ISR_Sw_Enable
 355              		.thumb
 356              		.thumb_func
 357              		.type	ISR_Sw_Enable, %function
 358              	ISR_Sw_Enable:
 359              	.LFB8:
 291:Generated_Source\PSoC5/ISR_Sw.c **** 
 292:Generated_Source\PSoC5/ISR_Sw.c **** 
 293:Generated_Source\PSoC5/ISR_Sw.c **** /*******************************************************************************
 294:Generated_Source\PSoC5/ISR_Sw.c **** * Function Name: ISR_Sw_Enable
 295:Generated_Source\PSoC5/ISR_Sw.c **** ********************************************************************************
 296:Generated_Source\PSoC5/ISR_Sw.c **** *
 297:Generated_Source\PSoC5/ISR_Sw.c **** * Summary:
 298:Generated_Source\PSoC5/ISR_Sw.c **** *   Enables the interrupt to the interrupt controller. Do not call this function
 299:Generated_Source\PSoC5/ISR_Sw.c **** *   unless ISR_Start() has been called or the functionality of the ISR_Start() 
 300:Generated_Source\PSoC5/ISR_Sw.c **** *   function, which sets the vector and the priority, has been called.
 301:Generated_Source\PSoC5/ISR_Sw.c **** *
 302:Generated_Source\PSoC5/ISR_Sw.c **** * Parameters:
 303:Generated_Source\PSoC5/ISR_Sw.c **** *   None
 304:Generated_Source\PSoC5/ISR_Sw.c **** *
 305:Generated_Source\PSoC5/ISR_Sw.c **** * Return:
 306:Generated_Source\PSoC5/ISR_Sw.c **** *   None
 307:Generated_Source\PSoC5/ISR_Sw.c **** *
 308:Generated_Source\PSoC5/ISR_Sw.c **** *******************************************************************************/
 309:Generated_Source\PSoC5/ISR_Sw.c **** void ISR_Sw_Enable(void)
 310:Generated_Source\PSoC5/ISR_Sw.c **** {
 360              		.loc 1 310 0
 361              		.cfi_startproc
 362              		@ args = 0, pretend = 0, frame = 0
 363              		@ frame_needed = 1, uses_anonymous_args = 0
 364              		@ link register save eliminated.
 365 0000 80B4     		push	{r7}
 366              		.cfi_def_cfa_offset 4
 367              		.cfi_offset 7, -4
 368 0002 00AF     		add	r7, sp, #0
 369              		.cfi_def_cfa_register 7
 311:Generated_Source\PSoC5/ISR_Sw.c ****     /* Enable the general interrupt. */
 312:Generated_Source\PSoC5/ISR_Sw.c ****     *ISR_Sw_INTC_SET_EN = ISR_Sw__INTC_MASK;
 370              		.loc 1 312 0
 371 0004 034B     		ldr	r3, .L26
 372 0006 4022     		movs	r2, #64
ARM GAS  C:\Users\almsk\AppData\Local\Temp\ccyMdYdm.s 			page 13


 373 0008 1A60     		str	r2, [r3]
 313:Generated_Source\PSoC5/ISR_Sw.c **** }
 374              		.loc 1 313 0
 375 000a 00BF     		nop
 376 000c BD46     		mov	sp, r7
 377              		.cfi_def_cfa_register 13
 378              		@ sp needed
 379 000e 80BC     		pop	{r7}
 380              		.cfi_restore 7
 381              		.cfi_def_cfa_offset 0
 382 0010 7047     		bx	lr
 383              	.L27:
 384 0012 00BF     		.align	2
 385              	.L26:
 386 0014 00E100E0 		.word	-536813312
 387              		.cfi_endproc
 388              	.LFE8:
 389              		.size	ISR_Sw_Enable, .-ISR_Sw_Enable
 390              		.section	.text.ISR_Sw_GetState,"ax",%progbits
 391              		.align	2
 392              		.global	ISR_Sw_GetState
 393              		.thumb
 394              		.thumb_func
 395              		.type	ISR_Sw_GetState, %function
 396              	ISR_Sw_GetState:
 397              	.LFB9:
 314:Generated_Source\PSoC5/ISR_Sw.c **** 
 315:Generated_Source\PSoC5/ISR_Sw.c **** 
 316:Generated_Source\PSoC5/ISR_Sw.c **** /*******************************************************************************
 317:Generated_Source\PSoC5/ISR_Sw.c **** * Function Name: ISR_Sw_GetState
 318:Generated_Source\PSoC5/ISR_Sw.c **** ********************************************************************************
 319:Generated_Source\PSoC5/ISR_Sw.c **** *
 320:Generated_Source\PSoC5/ISR_Sw.c **** * Summary:
 321:Generated_Source\PSoC5/ISR_Sw.c **** *   Gets the state (enabled, disabled) of the Interrupt.
 322:Generated_Source\PSoC5/ISR_Sw.c **** *
 323:Generated_Source\PSoC5/ISR_Sw.c **** * Parameters:
 324:Generated_Source\PSoC5/ISR_Sw.c **** *   None
 325:Generated_Source\PSoC5/ISR_Sw.c **** *
 326:Generated_Source\PSoC5/ISR_Sw.c **** * Return:
 327:Generated_Source\PSoC5/ISR_Sw.c **** *   1 if enabled, 0 if disabled.
 328:Generated_Source\PSoC5/ISR_Sw.c **** *
 329:Generated_Source\PSoC5/ISR_Sw.c **** *******************************************************************************/
 330:Generated_Source\PSoC5/ISR_Sw.c **** uint8 ISR_Sw_GetState(void)
 331:Generated_Source\PSoC5/ISR_Sw.c **** {
 398              		.loc 1 331 0
 399              		.cfi_startproc
 400              		@ args = 0, pretend = 0, frame = 0
 401              		@ frame_needed = 1, uses_anonymous_args = 0
 402              		@ link register save eliminated.
 403 0000 80B4     		push	{r7}
 404              		.cfi_def_cfa_offset 4
 405              		.cfi_offset 7, -4
 406 0002 00AF     		add	r7, sp, #0
 407              		.cfi_def_cfa_register 7
 332:Generated_Source\PSoC5/ISR_Sw.c ****     /* Get the state of the general interrupt. */
 333:Generated_Source\PSoC5/ISR_Sw.c ****     return ((*ISR_Sw_INTC_SET_EN & (uint32)ISR_Sw__INTC_MASK) != 0u) ? 1u:0u;
 408              		.loc 1 333 0
ARM GAS  C:\Users\almsk\AppData\Local\Temp\ccyMdYdm.s 			page 14


 409 0004 064B     		ldr	r3, .L32
 410 0006 1B68     		ldr	r3, [r3]
 411 0008 03F04003 		and	r3, r3, #64
 412 000c 002B     		cmp	r3, #0
 413 000e 01D0     		beq	.L29
 414              		.loc 1 333 0 is_stmt 0 discriminator 1
 415 0010 0123     		movs	r3, #1
 416 0012 00E0     		b	.L30
 417              	.L29:
 418              		.loc 1 333 0 discriminator 2
 419 0014 0023     		movs	r3, #0
 420              	.L30:
 334:Generated_Source\PSoC5/ISR_Sw.c **** }
 421              		.loc 1 334 0 is_stmt 1 discriminator 4
 422 0016 1846     		mov	r0, r3
 423 0018 BD46     		mov	sp, r7
 424              		.cfi_def_cfa_register 13
 425              		@ sp needed
 426 001a 80BC     		pop	{r7}
 427              		.cfi_restore 7
 428              		.cfi_def_cfa_offset 0
 429 001c 7047     		bx	lr
 430              	.L33:
 431 001e 00BF     		.align	2
 432              	.L32:
 433 0020 00E100E0 		.word	-536813312
 434              		.cfi_endproc
 435              	.LFE9:
 436              		.size	ISR_Sw_GetState, .-ISR_Sw_GetState
 437              		.section	.text.ISR_Sw_Disable,"ax",%progbits
 438              		.align	2
 439              		.global	ISR_Sw_Disable
 440              		.thumb
 441              		.thumb_func
 442              		.type	ISR_Sw_Disable, %function
 443              	ISR_Sw_Disable:
 444              	.LFB10:
 335:Generated_Source\PSoC5/ISR_Sw.c **** 
 336:Generated_Source\PSoC5/ISR_Sw.c **** 
 337:Generated_Source\PSoC5/ISR_Sw.c **** /*******************************************************************************
 338:Generated_Source\PSoC5/ISR_Sw.c **** * Function Name: ISR_Sw_Disable
 339:Generated_Source\PSoC5/ISR_Sw.c **** ********************************************************************************
 340:Generated_Source\PSoC5/ISR_Sw.c **** *
 341:Generated_Source\PSoC5/ISR_Sw.c **** * Summary:
 342:Generated_Source\PSoC5/ISR_Sw.c **** *   Disables the Interrupt in the interrupt controller.
 343:Generated_Source\PSoC5/ISR_Sw.c **** *
 344:Generated_Source\PSoC5/ISR_Sw.c **** * Parameters:
 345:Generated_Source\PSoC5/ISR_Sw.c **** *   None
 346:Generated_Source\PSoC5/ISR_Sw.c **** *
 347:Generated_Source\PSoC5/ISR_Sw.c **** * Return:
 348:Generated_Source\PSoC5/ISR_Sw.c **** *   None
 349:Generated_Source\PSoC5/ISR_Sw.c **** *
 350:Generated_Source\PSoC5/ISR_Sw.c **** *******************************************************************************/
 351:Generated_Source\PSoC5/ISR_Sw.c **** void ISR_Sw_Disable(void)
 352:Generated_Source\PSoC5/ISR_Sw.c **** {
 445              		.loc 1 352 0
 446              		.cfi_startproc
ARM GAS  C:\Users\almsk\AppData\Local\Temp\ccyMdYdm.s 			page 15


 447              		@ args = 0, pretend = 0, frame = 0
 448              		@ frame_needed = 1, uses_anonymous_args = 0
 449              		@ link register save eliminated.
 450 0000 80B4     		push	{r7}
 451              		.cfi_def_cfa_offset 4
 452              		.cfi_offset 7, -4
 453 0002 00AF     		add	r7, sp, #0
 454              		.cfi_def_cfa_register 7
 353:Generated_Source\PSoC5/ISR_Sw.c ****     /* Disable the general interrupt. */
 354:Generated_Source\PSoC5/ISR_Sw.c ****     *ISR_Sw_INTC_CLR_EN = ISR_Sw__INTC_MASK;
 455              		.loc 1 354 0
 456 0004 034B     		ldr	r3, .L35
 457 0006 4022     		movs	r2, #64
 458 0008 1A60     		str	r2, [r3]
 355:Generated_Source\PSoC5/ISR_Sw.c **** }
 459              		.loc 1 355 0
 460 000a 00BF     		nop
 461 000c BD46     		mov	sp, r7
 462              		.cfi_def_cfa_register 13
 463              		@ sp needed
 464 000e 80BC     		pop	{r7}
 465              		.cfi_restore 7
 466              		.cfi_def_cfa_offset 0
 467 0010 7047     		bx	lr
 468              	.L36:
 469 0012 00BF     		.align	2
 470              	.L35:
 471 0014 80E100E0 		.word	-536813184
 472              		.cfi_endproc
 473              	.LFE10:
 474              		.size	ISR_Sw_Disable, .-ISR_Sw_Disable
 475              		.section	.text.ISR_Sw_SetPending,"ax",%progbits
 476              		.align	2
 477              		.global	ISR_Sw_SetPending
 478              		.thumb
 479              		.thumb_func
 480              		.type	ISR_Sw_SetPending, %function
 481              	ISR_Sw_SetPending:
 482              	.LFB11:
 356:Generated_Source\PSoC5/ISR_Sw.c **** 
 357:Generated_Source\PSoC5/ISR_Sw.c **** 
 358:Generated_Source\PSoC5/ISR_Sw.c **** /*******************************************************************************
 359:Generated_Source\PSoC5/ISR_Sw.c **** * Function Name: ISR_Sw_SetPending
 360:Generated_Source\PSoC5/ISR_Sw.c **** ********************************************************************************
 361:Generated_Source\PSoC5/ISR_Sw.c **** *
 362:Generated_Source\PSoC5/ISR_Sw.c **** * Summary:
 363:Generated_Source\PSoC5/ISR_Sw.c **** *   Causes the Interrupt to enter the pending state, a software method of
 364:Generated_Source\PSoC5/ISR_Sw.c **** *   generating the interrupt.
 365:Generated_Source\PSoC5/ISR_Sw.c **** *
 366:Generated_Source\PSoC5/ISR_Sw.c **** * Parameters:
 367:Generated_Source\PSoC5/ISR_Sw.c **** *   None
 368:Generated_Source\PSoC5/ISR_Sw.c **** *
 369:Generated_Source\PSoC5/ISR_Sw.c **** * Return:
 370:Generated_Source\PSoC5/ISR_Sw.c **** *   None
 371:Generated_Source\PSoC5/ISR_Sw.c **** *
 372:Generated_Source\PSoC5/ISR_Sw.c **** * Side Effects:
 373:Generated_Source\PSoC5/ISR_Sw.c **** *   If interrupts are enabled and the interrupt is set up properly, the ISR is
ARM GAS  C:\Users\almsk\AppData\Local\Temp\ccyMdYdm.s 			page 16


 374:Generated_Source\PSoC5/ISR_Sw.c **** *   entered (depending on the priority of this interrupt and other pending 
 375:Generated_Source\PSoC5/ISR_Sw.c **** *   interrupts).
 376:Generated_Source\PSoC5/ISR_Sw.c **** *
 377:Generated_Source\PSoC5/ISR_Sw.c **** *******************************************************************************/
 378:Generated_Source\PSoC5/ISR_Sw.c **** void ISR_Sw_SetPending(void)
 379:Generated_Source\PSoC5/ISR_Sw.c **** {
 483              		.loc 1 379 0
 484              		.cfi_startproc
 485              		@ args = 0, pretend = 0, frame = 0
 486              		@ frame_needed = 1, uses_anonymous_args = 0
 487              		@ link register save eliminated.
 488 0000 80B4     		push	{r7}
 489              		.cfi_def_cfa_offset 4
 490              		.cfi_offset 7, -4
 491 0002 00AF     		add	r7, sp, #0
 492              		.cfi_def_cfa_register 7
 380:Generated_Source\PSoC5/ISR_Sw.c ****     *ISR_Sw_INTC_SET_PD = ISR_Sw__INTC_MASK;
 493              		.loc 1 380 0
 494 0004 034B     		ldr	r3, .L38
 495 0006 4022     		movs	r2, #64
 496 0008 1A60     		str	r2, [r3]
 381:Generated_Source\PSoC5/ISR_Sw.c **** }
 497              		.loc 1 381 0
 498 000a 00BF     		nop
 499 000c BD46     		mov	sp, r7
 500              		.cfi_def_cfa_register 13
 501              		@ sp needed
 502 000e 80BC     		pop	{r7}
 503              		.cfi_restore 7
 504              		.cfi_def_cfa_offset 0
 505 0010 7047     		bx	lr
 506              	.L39:
 507 0012 00BF     		.align	2
 508              	.L38:
 509 0014 00E200E0 		.word	-536813056
 510              		.cfi_endproc
 511              	.LFE11:
 512              		.size	ISR_Sw_SetPending, .-ISR_Sw_SetPending
 513              		.section	.text.ISR_Sw_ClearPending,"ax",%progbits
 514              		.align	2
 515              		.global	ISR_Sw_ClearPending
 516              		.thumb
 517              		.thumb_func
 518              		.type	ISR_Sw_ClearPending, %function
 519              	ISR_Sw_ClearPending:
 520              	.LFB12:
 382:Generated_Source\PSoC5/ISR_Sw.c **** 
 383:Generated_Source\PSoC5/ISR_Sw.c **** 
 384:Generated_Source\PSoC5/ISR_Sw.c **** /*******************************************************************************
 385:Generated_Source\PSoC5/ISR_Sw.c **** * Function Name: ISR_Sw_ClearPending
 386:Generated_Source\PSoC5/ISR_Sw.c **** ********************************************************************************
 387:Generated_Source\PSoC5/ISR_Sw.c **** *
 388:Generated_Source\PSoC5/ISR_Sw.c **** * Summary:
 389:Generated_Source\PSoC5/ISR_Sw.c **** *   Clears a pending interrupt in the interrupt controller.
 390:Generated_Source\PSoC5/ISR_Sw.c **** *
 391:Generated_Source\PSoC5/ISR_Sw.c **** *   Note Some interrupt sources are clear-on-read and require the block 
 392:Generated_Source\PSoC5/ISR_Sw.c **** *   interrupt/status register to be read/cleared with the appropriate block API 
ARM GAS  C:\Users\almsk\AppData\Local\Temp\ccyMdYdm.s 			page 17


 393:Generated_Source\PSoC5/ISR_Sw.c **** *   (GPIO, UART, and so on). Otherwise the ISR will continue to remain in 
 394:Generated_Source\PSoC5/ISR_Sw.c **** *   pending state even though the interrupt itself is cleared using this API.
 395:Generated_Source\PSoC5/ISR_Sw.c **** *
 396:Generated_Source\PSoC5/ISR_Sw.c **** * Parameters:
 397:Generated_Source\PSoC5/ISR_Sw.c **** *   None
 398:Generated_Source\PSoC5/ISR_Sw.c **** *
 399:Generated_Source\PSoC5/ISR_Sw.c **** * Return:
 400:Generated_Source\PSoC5/ISR_Sw.c **** *   None
 401:Generated_Source\PSoC5/ISR_Sw.c **** *
 402:Generated_Source\PSoC5/ISR_Sw.c **** *******************************************************************************/
 403:Generated_Source\PSoC5/ISR_Sw.c **** void ISR_Sw_ClearPending(void)
 404:Generated_Source\PSoC5/ISR_Sw.c **** {
 521              		.loc 1 404 0
 522              		.cfi_startproc
 523              		@ args = 0, pretend = 0, frame = 0
 524              		@ frame_needed = 1, uses_anonymous_args = 0
 525              		@ link register save eliminated.
 526 0000 80B4     		push	{r7}
 527              		.cfi_def_cfa_offset 4
 528              		.cfi_offset 7, -4
 529 0002 00AF     		add	r7, sp, #0
 530              		.cfi_def_cfa_register 7
 405:Generated_Source\PSoC5/ISR_Sw.c ****     *ISR_Sw_INTC_CLR_PD = ISR_Sw__INTC_MASK;
 531              		.loc 1 405 0
 532 0004 034B     		ldr	r3, .L41
 533 0006 4022     		movs	r2, #64
 534 0008 1A60     		str	r2, [r3]
 406:Generated_Source\PSoC5/ISR_Sw.c **** }
 535              		.loc 1 406 0
 536 000a 00BF     		nop
 537 000c BD46     		mov	sp, r7
 538              		.cfi_def_cfa_register 13
 539              		@ sp needed
 540 000e 80BC     		pop	{r7}
 541              		.cfi_restore 7
 542              		.cfi_def_cfa_offset 0
 543 0010 7047     		bx	lr
 544              	.L42:
 545 0012 00BF     		.align	2
 546              	.L41:
 547 0014 80E200E0 		.word	-536812928
 548              		.cfi_endproc
 549              	.LFE12:
 550              		.size	ISR_Sw_ClearPending, .-ISR_Sw_ClearPending
 551              		.text
 552              	.Letext0:
 553              		.file 2 "Generated_Source\\PSoC5/cytypes.h"